(ilrsgd_fast
LogisticRegressionSGD
p0
(dp1
S'mu'
p2
F0.0
sS'alpha'
p3
F1.0
sS'eta'
p4
F0.01
sS'weight'
p5
(lp6
F0.0
aF0.0
aF-0.0050015282328693626
aF-0.004942456612066771
aF0.0
aF0.0049902969099819205
aF0.0
aF-0.0024484345583054724
aF0.07071118883183458
aF0.0
aF0.004956004480093324
aF-0.005095280528656444
aF-0.0045904703176211595
aF0.010674304580981613
aF-0.06524506289907482
aF-0.009823184400911556
aF-0.015485716048352235
aF-0.009220909540445785
aF0.0
aF-0.0043850069641887725
aF-0.004671187625655434
aF-0.009211080512636883
aF0.0
aF-0.003788888563327702
aF-0.0022276054684817483
aF0.0
aF-0.004690147255514937
aF-0.004671187625655434
aF-0.004863768697746366
aF-0.004297083820941662
aF0.00043024584757592535
aF-0.004438903911883387
aF0.005226133535368631
aF-0.004942456612066771
aF-0.004438903911883387
aF-0.005503470521476185
aF-0.003917072861493569
aF-0.014819800486312217
aF0.004846150923746523
aF0.00014486400848122243
aF-0.004381179860113028
aF0.024508230417615663
aF-0.00434999516730651
aF0.010695691278221953
aF-0.004822222881698566
aF-0.022686807870366223
aF0.005045525742243235
aF-0.009525166091850189
aF-0.01019630312988156
aF0.0
aF-0.01483731183478535
aF0.036658715579566785
aF0.07735933263755211
aF-0.017643972881753074
aF-0.12134278092019991
aF0.08430503080111991
aF0.0018465554669812173
aF0.0
aF-0.06453465092666805
aF-0.004695511194745398
aF0.018061604860661114
aF0.0380438902226177
aF0.05921308821881843
aF0.3524327855707294
aF0.00023324353441348238
aF-0.00524295840730246
aF0.004351343151982637
aF0.0036855170205841127
aF-0.032389287286569125
aF-0.010340075836490808
aF-0.009955889381773369
aF-0.04584897344432994
aF-0.053702356765866835
aF-0.00393220872419671
aF-0.08951494573771879
aF-0.005035932924344396
aF-0.031252688062604776
aF-0.033042833486845676
aF-0.09424497263889065
aF-0.048155005093219884
aF0.021478025611636916
aF-0.03046001480301731
aF-0.22744462787081177
aF-0.01985904296332147
aF-0.0018819313657039555
aF-0.027960001135378935
aF0.010548544026901308
aF-0.008724808265889155
aF-0.005838191778367526
aF-0.08271008178409057
aF-0.14856859762546332
aF0.012501855343257599
aF0.002203518741943891
aF-0.0030897318123193004
aF0.0003793789099953409
aF0.00510935121955858
aF-0.0015375954838205781
aF-0.02843564405319317
aF-0.014315547026449268
aF0.005028657487883816
aF0.005044264730391544
aF-0.009814436008319478
aF-0.010365527557634674
aF-0.005101838243463308
aF-0.005101143171467913
aF-0.012463275742336438
aF0.00038522749887950816
aF0.005254839873792612
aF0.0015964198512707466
aF-0.013615479627341892
aF-0.0049410326569719835
aF0.0055629127456547
aF0.009597045834315851
aF-0.003984637192284862
aF0.0004861058987977911
aF0.0028780644823457255
aF-0.026717670680158727
aF0.0
aF-0.004994508919226532
aF-0.009866562131544916
aF0.002268587448502552
aF-0.0605050806903107
aF-0.009435146059015095
aF0.004799127037105058
aF0.0
aF-0.013481930338081012
aF0.018291658990814967
aF0.012410397973811261
aF-0.028631109452317897
aF-0.009805790485000906
aF-0.022957053354885015
aF-0.004940186871002045
aF0.012082864886312683
aF0.10258005924713862
aF-0.033513467830852454
aF-0.004786079510712974
aF0.0046673742471526935
aF-0.09036208532410432
aF-0.004007626734197132
aF-0.07452969773961825
aF0.015661591066695055
aF0.0
aF-0.014699360061790175
aF0.0
aF-0.000189473820113948
aF0.0
aF-0.01715402597124744
aF0.0012383535885583945
aF-0.007685778607173158
aF-0.004264766395867666
aF-0.014596610773399563
aF-0.004946535220700403
aF-0.004483152090402633
aF-0.014777637356551208
aF-0.013220377653022572
aF-0.006665438080222076
aF-0.1002777239907462
aF-0.00959241402561562
aF-0.004996383360348216
aF-0.009918138672977963
aF-0.003380294156486538
aF-0.004991405597284882
aF-0.004821985787507493
aF-0.00471568698360978
aF0.00501762990160504
aF-0.028406302811538324
aF-0.037555814654926835
aF-0.0017202194416656089
aF0.0
aF-0.004955281116709256
aF-0.004724760060459932
aF-0.003905898886041332
aF-0.013993619210681901
aF0.0
aF-0.004806798203308991
aF0.0
aF-0.008572222772947167
aF0.0
aF-0.008900473858682128
aF-0.00850160609500398
aF-0.008366119048267628
aF-0.014979126445081559
aF-0.005254560666088207
aF0.00543449360374749
aF-0.0031227484564225172
aF-0.004300732011880697
aF0.027893925939362647
aF-0.08514210763143579
aF0.010683396291442781
aF-0.03841560671431736
aF0.008188392272123512
aF0.040761170064489205
aF-0.00011927817038590454
aF-0.0015555683508372928
aF0.0
aF-0.05848141784084784
aF0.006006579992764247
aF0.005131582578642244
aF0.005095933070497687
aF-0.010074655153868878
aF0.015970072251225396
aF-0.004815635798367299
aF-0.005287743094578541
aF0.005181111821952495
aF0.057281772035700125
aF0.00456464582431202
aF-0.00917856429125972
aF-0.009560399347922608
aF-0.01954548803494336
aF-0.004753143448870491
aF-0.004959445314695839
aF-0.009719538844618326
aF0.0
aF-0.004791828722240774
aF-0.008740575021249825
aF0.0
aF-0.004999793636626029
aF0.0026930904549588475
aF-0.004726639757749947
aF0.0004671991586445261
aF0.0
aF-0.028477272043480793
aF-0.013609274840754765
aF-0.017104999822601556
aF-0.018715035193139995
aF-0.009328285786261391
aF-0.02741969914224306
aF-0.0046300877495228975
aF-0.004288114076321479
aF0.005311902202750103
aF-0.004941319989314836
aF0.005311902202750103
aF0.011130852213737448
aF-0.004652979184121306
aF0.007228100564791025
aF0.00033375145834747474
aF-0.012567170333966185
aF0.0049119526645976345
aF-0.004637504723208378
aF0.0
aF-0.00446263460193885
aF-0.009516028825788605
aF0.005798961348925791
aF0.004527652954873266
aF-0.004739665422723914
aF-0.004946149167420837
aF-0.004554572694876274
aF0.005452463716434788
aF-0.004530582318798175
aF-0.004540923946355773
aF-0.004280871037557823
aF0.004960859321434722
aF0.0006044823728583283
aF-0.005252048892188331
aF-0.0016784090445478384
aF-0.01671865157471001
aF-0.013218617441826648
aF-0.03039671208253951
aF0.0009511318149627401
aF0.016131191357643584
aF-0.02293611888777709
aF0.0
aF0.0009404059739123033
aF0.005071259407179064
aF-0.004908341984957092
aF-0.004574413748459972
aF-0.0030880998518827735
aF0.017321414450926696
aF0.011757971167056385
aF0.008531580808796659
aF-0.004724786375450547
aF0.000322384675102122
aF-0.005356972851882587
aF0.0
aF0.014184098325839022
aF-0.01624323596404034
aF-0.030280960924946365
aF0.005193076438189498
aF-0.001437251155010786
aF-0.0027417319044831653
aF-0.010765005729860007
aF0.022555279775076816
aF-0.024069288276187234
aF0.007555948407760295
aF0.0054344073453492635
aF0.009422998360771404
aF-0.007219386968264718
aF-0.009544823892878255
aF0.03642270697823372
aF-0.041494528566594906
aF0.01466799883441329
aF0.03068559393088545
aF-0.011784356359896893
aF0.011806436393418912
aF0.015610893479349356
aF0.012441578805756873
aF0.0031947572629248758
aF0.010415542934164211
aF0.0049968485142507
aF0.0
aF0.04761125959685247
aF0.010188590356802592
aF0.007865833791782639
aF-0.020918050277402435
aF0.005485662576760837
aF-0.003470721042154959
aF0.004876187653430707
aF0.0002764562150591133
aF-0.004983385700743005
aF-0.004891777574134716
aF-0.004985857337151551
aF0.010576376019190844
aF-0.004274917107812069
aF0.0008695807538236016
aF0.011235859420876994
aF0.005407428819590993
aF0.007609216148403252
aF-0.0049695729865491195
aF0.030571160811248145
aF0.021533667846433624
aF0.03211561739402283
aF0.019383305970823675
aF0.095989243889602
aF0.07776870001774339
aF-0.000899695936224177
aF0.0023993344408414982
aF-0.00959423034751528
aF-0.004121268786947723
aF-0.005002903257199744
aF-0.0049061386787288145
aF0.010480946033047955
aF-0.014458425140674917
aF-0.004143729315708437
aF-0.004803715343179496
aF-0.004977759247564581
aF0.010856348714838288
aF-0.008671443068957473
aF0.0017585008743942398
aF-0.009797299141884624
aF0.004923782130114792
aF0.0
aF-0.004092571477512748
aF0.011564712796750322
aF0.00033079052840251106
aF-0.013274912571537525
aF-0.0037064660615035053
aF0.004141138098014643
aF0.008393839452599841
aF0.0
aF0.0
aF0.008428006141449128
aF0.010359826955829786
aF0.010026217304552528
aF0.00021114388196408814
aF0.004794689667879927
aF-0.008792076818617696
aF-0.02429762148868317
aF-0.0856131582996125
aF-0.012789078377300728
aF-0.004681932293170959
aF0.00506895518035319
aF-0.004567029975113457
aF0.0
aF-0.005355572544185822
aF-0.004886130820743149
aF0.004839183680939878
aF-0.004829408066143966
aF-0.003924702483038472
aF0.006375310144633319
aF-0.010646495012944087
aF-0.006220036777031802
aF-0.004395292505001102
aF0.010104349904690661
aF-0.00334852779982953
aF-0.08837829532704815
aF-0.004472498942125603
aF0.005267749347828388
aF-0.004289091685169772
aF-0.00410654206561722
aF0.0
aF-0.004709052138031198
aF-0.005
aF-0.06962318639976971
aF0.017643036776836526
aF-0.05261973899981622
aF-0.02002722170110289
aF0.0015549086101658144
aF-0.0005584330625364568
aF-0.009836480610833993
aF-0.01872967835869315
aF-0.008301145822131444
aF-0.0025408003712758197
aF-0.0036877212866176395
aF-0.014206649973421014
aF0.004987654667281335
aF0.005003297902992663
aF-0.016168294795078114
aF0.018696658696489028
aF0.005337394114552474
aF0.00505158811961826
aF-0.010093028774600242
aF-0.014048085039845655
aF0.015169219808917804
aF-0.009511081203467346
aF0.003233114505093635
aF-0.004553234264300858
aF-0.004700222501086293
aF-0.03520583259474218
aF0.03716701215181875
aF0.008594003434001333
aF-0.01964678425041274
aF0.016914316303576322
aF-0.0031936449888328505
aF0.005997300953945002
aF0.006926177625051518
aF0.10042318372989359
aF0.010710455966482568
aF0.13992938635209637
aF-0.00014707319509022713
aF0.04350219824648548
aF-0.004294976512919893
aF0.13969515991010922
aF0.24580452179071255
aF0.09341636854520395
aF0.03118351099115349
aF-0.006595380624792875
aF-0.006576761695881075
aF0.11551531368793086
aF0.02280076931627356
aF0.18229285092611808
aF-0.002196620718341047
aF0.05124357595820059
aF0.0003079768123015634
aF-0.020748742765600577
aF0.0738754694170904
aF0.0015744181951183288
aF0.07560767002194135
aF0.014357464017650586
aF0.005142908062343235
aF0.00227117439984973
aF0.005756120964896698
aF0.0050761626595967856
aF0.009573990800903546
aF-0.008838447076095986
aF0.0
aF-0.013897372812298019
aF0.005173335075523102
aF0.004174891100271318
aF0.0055449789193656816
aF-0.0005253117198338111
aF-0.004168858708013606
aF-0.004565300600543949
aF-0.003596075749685324
aF0.004999113770328335
aF-0.004340393961110036
aF0.010991003236719324
aF0.004228319573453874
aF-0.003508908294372657
aF-0.004995423382797519
aF-0.01010125427213381
aF0.006475009062058893
aF0.004442102637069411
aF0.0047531205372794
aF0.004819683842638633
aF0.004528011679880975
aF0.004790095442025566
aF0.004790095442025566
aF0.009426427800563249
aF-0.005629409492193221
aF0.014438189907470382
aF-0.004967173709930985
aF-0.004336802465007819
aF-0.0046722032836794035
aF0.017394846213632142
aF-0.0060882539599967115
aF-0.004548825651732853
aF0.0011332815134909406
aF0.005210095602737848
aF-0.003742316560795697
aF0.01391475349637558
aF-0.005275992095972779
aF0.04179393935990279
aF-0.008484023770670354
aF0.00747894500624432
aF0.0012897273484493493
aF0.01401878443694241
aF-0.0009123162697996469
aF0.012203103054500581
aF0.0
aF0.0047312380863117655
aF0.09072683379564682
aF0.010964175009699052
aF0.008132565855714683
aF0.00510935121955858
aF0.009981848135894188
aF0.0
aF0.005004086913665754
aF0.009733298655302145
aF-0.00017000588414761838
aF-0.004688044319322147
aF-0.0005816929021443695
aF0.0
aF-0.004939091376977597
aF-0.0975791310852373
aF-0.03784888134439079
aF-0.0905284477523608
aF-0.020446365888558506
aF-0.022466827932921762
aF-0.030504399492951938
aF-0.0038176137293336656
aF-0.003988817679701576
aF0.0006235665752335681
aF0.004991880090819175
aF0.004579976186820258
aF-0.006967003388314769
aF-0.03577673422920055
aF0.005027426746649311
aF0.00517405436252129
aF-0.016109038684763283
aF-0.006670820066796902
aF-0.004465680239617213
aF-0.002818110831772624
aF-0.004898306610842582
aF-0.0028958670894969523
aF-0.004549628532608739
aF-0.004938527075058131
aF-0.0048824582879501595
aF-0.0045397670784807385
aF-0.0012417903681643276
aF-0.007919694800800046
aF-0.00804007580151504
aF-0.004728593654510159
aF0.0
aF5.592856088211702e-05
aF-0.014006407354909257
aF-0.020055083206785018
aF-0.012338387300773149
aF-0.09463946800338544
aF-0.004777410438292995
aF-0.02867933118194077
aF-0.004777410438292995
aF-0.0048488952272066465
aF-0.023612459181542842
aF-0.017603502373978706
aF-0.056989122788804476
aF-0.009280425602959743
aF-0.008333060518451996
aF-0.04212604713280007
aF-0.013262577445640838
aF-0.0007188625676295872
aF-0.0008899656005961928
aF-0.03264080557807314
aF-0.03071463540483646
aF-0.025768146965673384
aF-0.040540624498643776
aF-0.00581912960744156
aF0.0
aF0.0
aF-0.004624036772785634
aF0.0
aF0.0036371695502622568
aF0.0
aF-0.004945958627449619
aF0.0
aF-0.04233849084981753
aF-0.0046028795279975795
aF0.0008368532312912364
aF-0.004329660988614166
aF-0.0038046930798314345
aF-0.004880743562191383
aF-0.0034734057386451907
aF-0.007767848907777702
aF-0.003099674648434644
aF-0.009045292364633268
aF0.0050006963985785545
aF-0.003916882256287928
aF-0.004472087315029756
aF-0.00469737802589215
aF-0.004281763371826013
aF-0.009784388609764685
aF0.005859216159923568
aF-0.0038884680518678563
aF-0.026385727408412416
aF-0.014701839577377886
aF-0.012459004385959229
aF-0.010868797619656721
aF0.0007387310451875467
aF0.0023024598642939634
aF0.00047460296000470265
aF-0.005501526423744581
aF0.00035101269116195356
aF0.03323206475659288
aF-0.07510675715240882
aF-0.004438903911883387
aF0.003057569200242233
aF-0.00488762426710493
aF-0.00880500859148322
aF0.0034055738163240932
aF0.0026616839405618612
aF-0.004532608576040158
aF-0.0022542359655343233
aF-0.007479525035769213
aF-0.004609970344479336
aF0.006621500911563062
aF-0.009661723219747486
aF-0.017652809657534293
aF-0.05312884449390338
aF-0.006052748841004734
aF-0.002992849215632346
aF-0.01358694396992418
aF-0.010030325905405897
aF0.0
aF0.0022332255576059303
aF-0.004231121915522469
aF-0.004247203020776455
aF-0.0039042174162406936
aF-0.08563723384047452
aF-0.00880473965147923
aF-0.011593300628439008
aF-0.040313128132153285
aF-0.02440034436822766
aF-0.01323008281600568
aF0.010381025915455793
aF-0.04366799884083879
aF-0.14110386211383089
aF-0.028697183386679755
aF-0.0048567790460388085
aF-0.00996803244643201
aF-0.004809012340657688
aF-0.013845794932577503
aF-0.5855155368623474
aF-0.1461404893573611
aF-0.11168344138777433
aF-0.015195534507448129
aF-0.0412812840836584
aF-0.028259985166378496
aF-0.1018365079714116
aF-0.055346782831348876
aF-0.02927773954460429
aF-0.0022259019814068765
aF-0.031842320453851096
aF-0.006812518414519497
aF-0.008256806667458098
aF0.016366644898758612
aF-0.005063361733931218
aF-0.01005018874363247
aF0.033248430096626445
aF-0.009155911336621927
aF-0.0819722864631593
aF-0.014796138582416069
aF-0.07080632553944997
aF-0.04047232121659933
aF-0.0738699811167336
aF-0.02422382824859513
aF-0.08274967197668315
aF-0.016079599959114357
aF-0.060005727377143714
aF-0.03736444832690892
aF0.03120716677560073
aF0.003376837044912894
aF0.016576561798335575
aF-0.0037445960763828395
aF0.005741754595703806
aF-0.0129517497786542
aF-0.02145060702969375
aF-0.019923223585770634
aF-0.012158810684614838
aF-0.003977136547739933
aF-0.011371514915501785
aF-0.00883602550102685
aF-0.0003431351729206281
aF-0.01524525411768585
aF0.009761046208182998
aF-0.0053287708028324655
aF-0.005286221754183093
aF-0.022552931790593846
aF0.0017222742220929475
aF-0.05512062821193241
aF-0.022550476050055557
aF0.004991024819458167
aF-0.004742881777495315
aF-0.0516517494242882
aF-0.004122639458203534
aF-0.004937904949045173
aF-0.01563004401721518
aF-0.00304042433531063
aF-0.008274039263342295
aF-0.01564807087055525
aF-0.010827809243867448
aF-0.009093014238347
aF-0.00489632025805705
aF-0.004671763788386451
aF-0.008707235621427837
aF-0.0012447688078744846
aF-0.013754445087632001
aF-0.014672497102525777
aF0.0050013136009518224
aF0.01962417401968307
aF-0.04282433030980936
aF-0.026988220781893536
aF-0.01686436178270088
aF-0.013230559537514178
aF-0.01867244537685034
aF-0.004975006972881517
aF-0.0038928973048345064
aF-0.0025979226763415252
aF-0.003494525886297641
aF-0.00493175787102099
aF-0.009322177664307024
aF-0.0024209141004439853
aF0.0075812218717832445
aF-0.0040495342985625935
aF-0.008973209871731575
aF0.01892781323132633
aF0.015024400979421242
aF0.000600255318327945
aF-0.017174976084921478
aF-0.016347661878570313
aF0.06907973574802301
aF-0.000362620460478131
aF0.006236057806682328
aF-0.025084875110477686
aF0.0
aF-0.0014410962026418293
aF-0.00634782787260994
aF-2.4334530748425665e-05
aF0.0
aF0.004989032188910493
aF-0.013962989744414886
aF-0.02032477112996913
aF-0.0002554772438108821
aF-0.0001206490809707815
aF-0.0041907998329265405
aF-0.03306832304236913
aF0.005963764684968711
aF-0.8359619730076495
aF-0.04119671971990517
aF-0.028342597976347254
aF-0.44362911657841675
aF-0.00496343873618404
aF-0.00902029368655206
aF0.0021740233282388412
aF-0.009352789694433311
aF-0.009822428107065843
aF-0.02420401074745569
aF-0.017216714848631687
aF-0.0061967995353711565
aF-0.00976763967954328
aF0.03146984584901053
aF0.0009386937809194335
aF-0.027195194209180765
aF0.011844371086765157
aF-0.19407887928607304
aF-0.020271693417485914
aF0.0065815595288310135
aF-0.08145523283217879
aF-0.11971843421796396
aF0.004518518443121567
aF-0.14857170080985094
aF-0.004188120528759168
aF-0.032790556906182926
aF-0.00475588036882995
aF0.09796046141375521
aF-0.12786396226954563
aF-0.009299256803650999
aF-0.037147948988775444
aF0.05341322373243501
aF-0.028578574231152926
aF-0.07975038860027542
aF-0.23629386070195363
aF-0.17870872275503014
aF-0.16845176165812886
aF0.0340224622468553
aF-0.18492540993755116
aF-0.019327298142067666
aF-0.009810172656566873
aF-0.004997499915067402
aF-0.01122793423471295
aF-0.010003397459651339
aF0.0025187527348509257
aF-0.030268359704352998
aF-0.009566558733092631
aF-0.014078626647925103
aF0.004839183680939878
aF-0.003934535838263195
aF-0.0008402565451873737
aF-0.0040782159385358155
aF-0.4260248213036743
aF-0.14443675737347164
aF-0.023774259570806432
aF-0.021602897546909063
aF-0.0073756688586540785
aF-0.009409803176849233
aF-0.004101770320861269
aF-0.018675178220368786
aF-0.003549789980239143
aF-0.004982915818919049
aF-0.012948044895540287
aF-0.001836802465007819
aF0.0
aF-0.0836456686247052
aF-0.010267964978546193
aF-0.26217104772864275
aF-0.021666825152758418
aF-0.060300232590331224
aF0.0067138742631840855
aF-0.004772788954550958
aF-0.03774224695616108
aF0.005368917063066662
aF-0.010048705390650281
aF-0.035998148096815986
aF-0.020913795475879363
aF-0.02137401693698306
aF0.004433238461578693
aF-0.014214340867475531
aF-0.0024969332468149246
aF0.0
aF-0.003487811288563374
aF0.012288945331693186
aF-0.020621254583181804
aF-0.010653412695359469
aF-0.006986666370993303
aF-0.0011583237557989943
aF-0.0026533646686508414
aF-0.06644341304089132
aF0.14092959677733305
aF-0.021631089523611105
aF-0.00028594476885884616
aF-0.6928719279753496
aF-0.03951116550650735
aF0.08802654921624412
aF-0.027059485889715892
aF-0.034157271185888606
aF-0.7323543954406987
aF-0.010407811697172186
aF0.003167406177883245
aF0.005863079019122036
aF-0.01677329795207472
aF-0.05365065602091988
aF0.003120432931401872
aF0.20910905785995135
aF0.0936854630444479
aF0.05994765132055996
aF0.000997337267933354
aF0.0012500300961518556
aF-0.004807109442182538
aF-0.011146170775394426
aF-0.012324347881465374
aF-0.02864111892744533
aF0.0
aF0.01068415512759986
aF-0.14244433165696652
aF-0.007920185532137237
aF0.07060987369296434
aF-0.016728962926843165
aF0.0020730499490920298
aF-0.0041853601548407894
aF-0.011450298857881137
aF-0.009348047766334102
aF0.0015650197834670802
aF-0.04116538107267837
aF0.00605105592675058
aF-0.038734547889224605
aF-0.17558113265426134
aF-0.00491866553490301
aF0.003007988569258064
aF-0.004846203875432735
aF0.006378890708282942
aF-0.06978312725711013
aF-0.004372858027419411
aF-0.00047701428195707444
aF-0.0044833030018781245
aF-0.015968376942837644
aF-0.019758376547917917
aF-0.002162095331426766
aF-0.01685520563721089
aF-0.0031227484564225172
aF0.028048900779443473
aF-0.02907118030203802
aF-0.0037255924329917542
aF-0.019401327960396814
aF0.02380135407138455
aF-0.007308108611263306
aF-0.008489536372980163
aF-0.01577472445739625
aF0.037357509043778575
aF0.0
aF-0.00388099459763409
aF-0.008303489342950256
aF-0.01350904910224205
aF0.022183751558307048
aF-0.014895618813834846
aF-0.0030019997138636435
aF-0.15940525516727982
aF-0.019336454503311548
aF-0.006025821964398273
aF-0.02776526835058408
aF-0.23603110876363506
aF-0.17263450409781061
aF-0.011809301443130221
aF-0.011412582364671131
aF-0.10083528026784509
aF-0.011934440295306091
aF0.0
aF-0.008301658791361717
aF-0.015041998421608943
aF-0.23982665481239807
aF-0.0041577255835030654
aF-0.004728307532404792
aF-0.009339586017770306
aF0.0
aF-0.16341490197246022
aF-0.004717602957968144
aF0.007863035434396298
aF-0.019032622387532377
aF0.007831087247861383
aF-0.026920461113041104
aF-0.005146209037345845
aF-0.012942087675306468
aF-0.02394672459161138
aF0.0
aF-0.004820710175363055
aF-0.010679762917859485
aF-0.037958136987694374
aF-0.004768288588731211
aF-0.08426924895076107
aF-0.0123709127893286
aF0.00508999732793197
aF-0.008438918343355493
aF-0.00491211782386527
aF-0.09366074202868836
aF0.0007593358294792265
aF-0.004879583074518549
aF-0.004856202217011922
aF-0.22399245771523535
aF-0.0048935202019205655
aF-0.03610986897276274
aF-0.01259327427789063
aF-0.015120759732735332
aF-0.004100582498604036
aF-0.03261232659637146
aF-0.04925892280553086
aF-0.034243905475282076
aF-0.004752134509862664
aF-0.06252265379077296
aF-0.0035695568280265095
aF-0.004074776871105042
aF0.0
aF-0.08832332519197464
aF-0.12366723417864746
aF-0.003107413714398515
aF-0.012068961420804603
aF-0.056878027417664005
aF-0.0034135060630662087
aF-0.020618866632142446
aF0.004951555203450348
aF-0.009840214756551146
aF-0.004952640680935818
aF-0.07763256786069264
aF-0.014500084655360033
aF-0.0133536928683128
aF-0.15091779784944448
aF-0.05824397786544588
aF-0.015919548304890414
aF0.0
aF-0.03349721192605592
aF-0.004286984854664517
aF-0.01215559194425117
aF-0.0025755866262248818
aF-0.004583252311301881
aF-0.004807486084908993
aF-0.009308722793467426
aF-0.009266234882019941
aF-0.015109546126345255
aF-0.047802110123884835
aF-0.07755088795728121
aF-0.007447079991881645
aF-0.05761959029641833
aF-0.004976350707709947
aF-0.001605661239066759
aF0.004054781234347239
aF-0.01770992042128494
aF-0.004861363595828373
aF-0.022723169500897998
aF-0.007251079505373542
aF-0.03674268599962072
aF-0.03107396332976072
aF-0.009612655144495044
aF-0.08832773319158738
aF-0.1841874208067977
aF-0.01999476751674387
aF-0.005483438299812041
aF-0.1882513527072115
aF-0.20212266329762787
aF-0.008304346489182143
aF-0.02483004870275643
aF-0.03572906106551531
aF-0.08715962091684198
aF-0.0040967779680265905
aF-0.0038162812062190786
aF-0.014129736782549659
aF-0.004421051425057972
aF-0.03232167332110562
aF-0.0829102384896754
aF-0.008369120890040205
aF-0.004074980689391408
aF-0.004477765676435082
aF-0.020998274862138327
aF0.0
aF0.0038816264120808
aF-0.010989256980270196
aF-0.004952952316370223
aF-0.010007264519510513
aF-0.01804358246186767
aF-0.004972172013357635
aF0.006282529242009059
aF-0.028721057736612036
aF-0.030538116669083487
aF-0.003578667769893162
aF-0.6858475861057395
aF-0.2015011925322158
aF-0.021871738100461068
aF-0.09817791994718751
aF-0.839272371724311
aF-0.09591961740155208
aF-0.025681095400389632
aF-0.008333514392046224
aF-0.00419632654421574
aF-0.0049339403663934195
aF0.0
aF-0.04511564393407895
aF-0.007868709978485447
aF-0.1696518424634116
aF0.0020494377941965474
aF0.006347326316516616
aF-0.02248333771468379
aF-0.1822776607283906
aF-0.04857765787482669
aF-0.01328700556470507
aF-0.04414346318720931
aF-0.036563084900406245
aF0.0
aF-0.006697105015732534
aF-0.06522905018254864
aF-0.0432147914960929
aF-0.017872233635514455
aF-0.004619412709189905
aF-0.0012085260892818672
aF-0.0027253021187224748
aF-0.023020311126560118
aF-0.008795300505521606
aF-0.008016690210499996
aF-0.017236178082129676
aF-0.04201397959484241
aF-0.0038955662279575266
aF-0.004626578739214676
aF-0.02068584912578776
aF0.0
aF-0.08024018780057887
aF-0.009124494360356755
aF0.005155949298186092
aF-0.004836718858255126
aF-0.00922365112875721
aF-0.038429844033639936
aF-0.015995503560394385
aF-0.040132695638355115
aF-0.003940026134851822
aF-0.07606821331750203
aF-0.012521762058286546
aF-0.026926766990483617
aF-0.018232153906388927
aF-0.00804047675716766
aF-0.02922642746232645
aF0.004332764182001046
aF-0.4033582207545796
aF-0.0042098688908787105
aF-0.004904011851227511
aF-0.05328303091920825
aF-0.09452529284664114
aF0.0
aF0.0
aF-0.01812420724081489
aF-0.007116336259824517
aF-0.02156166001063407
aF-0.005168474282040844
aF-0.003007459778006467
aF-0.004712351191527596
aF-0.033175745994141435
aF-0.007790052181547431
aF-0.027310760379672692
aF-0.009516551557945584
aF-0.004290288874824164
aF0.004691055814052748
aF-0.04324135273346527
aF-0.005659700362858723
aF0.005033897115403378
aF0.008856094025389009
aF-0.06021532736440588
aF-0.0036524747279242367
aF0.0
aF-1.970947915117937e-05
aF-0.00447019844868405
aF-0.004526215615061047
aF-0.009791068069301485
aF-0.004896620584281198
aF-0.08239353772323608
aF-0.021874098402026393
aF-0.018085340057674055
aF-0.00473064105824131
aF-0.017572560497798886
aF-0.005168474282040844
aF-0.005289833651930646
aF-0.22158031812050658
aF-0.004856202217011922
aF-0.024011057491895214
aF0.0024278328533734366
aF-0.0031244275581080385
aF0.010275848250451261
aF0.007314154519648359
aF-0.08090538711963426
aF-0.0875340298368945
aF0.0012350817854732388
aF-0.004817997478739906
aF-0.010370486230309362
aF0.0
aF0.000347678903652727
aF-0.020604612604925545
aF-0.005127390302636057
aF0.005447595849085359
aF-0.06069970951480809
aF0.003741506119496832
aF0.005000077828600469
aF-0.004857233016469749
aF-0.00823450938246819
aF-0.019990442588939616
aF-0.020898010588134168
aF0.007037195074316506
aF-0.008368205082568227
aF-0.004690482848361966
aF-0.01871636530310823
aF-0.04552636684425815
aF-0.011208053496666799
aF-0.009578804493762826
aF-0.022060541578598866
aF0.004830030537625539
aF0.009415163416087297
aF0.005055247522096649
aF-0.01652144016858218
aF0.0050335944632492555
aF-0.004130497458079017
aF-0.008532467911350716
aF0.005755601309999349
aF-0.006383510748054794
aF0.04464230999142375
aF-0.008603376933017725
aF-0.006751942892479807
aF0.005665935972595368
aF-0.006224293864024293
aF-0.0010340459179425591
aF-0.005
aF-0.005642114353695655
aF-0.012016426887553056
aF0.0034496620831188964
aF-0.028749991849908358
aF0.0
aF-0.016633492747764194
aF-0.00698412357549784
aF-0.06895364280213405
aF-0.00317293809139763
aF-0.004273180554845646
aF-0.09535344735485421
aF0.02372016833363067
aF-0.014387550668614095
aF-0.07657561119089017
aF-0.004089314136351867
aF-0.0027428502484838145
aF-0.003387516213559474
aF0.00605404396715347
aF-0.0022579229718184273
aF-0.00011121800843289431
aF-0.004233032189028618
aF-0.014767761410736265
aF-0.003943948139225313
aF0.0012167753785212085
aF0.0006047015949691356
aF-0.03239371375381311
aF-0.1570858596642077
aF-0.008820320848460838
aF-0.03157564460685421
aF-5.33948020215733e-05
aF-0.00736607913274435
aF0.0
aF-0.00448810701857048
aF-0.02458290467823736
aF0.0022170430335222034
aF0.0063806788609707225
aF-0.004987654462220144
aF-0.00680458292902041
aF-0.004713198745153178
aF-0.0027426783110348577
aF-0.011372737812280225
aF-0.004200170430522904
aF0.005904194717635541
aF-0.013395368511553978
aF-0.01372151324114459
aF-0.0042925430292713096
aF-0.024756854252091717
aF-0.005990155160454258
aF-0.009315882585013108
aF-0.009722732845034953
aF-0.0700294157301397
aF-0.014688256554917699
aF-0.05195404677467231
aF-0.02739096700060041
aF-0.014182357303859618
aF-0.02087640344523615
aF-0.011674281459679041
aF-0.009062293745991172
aF-0.0037494301513198583
aF-0.0146573438360338
aF-0.15604098585082052
aF0.005758199119246074
aF0.005371851528451551
aF-0.010691018461116223
aF-0.03307676396598418
aF-0.10118359388596788
aF-0.004473343069991786
aF0.0029219646248484195
aF-0.02891089136794221
aF0.20183523317242635
aF-0.017295948867524443
aF-2.252217263691656e-05
aF-0.10652374257801711
aF0.036706652734212517
aF-0.03039609825530498
aF0.12519410249732588
aF-0.07406899649165516
aF-0.06709520542834581
aF-0.00606717726301734
aF-0.03152335081234541
aF0.00451371861772827
aF-0.012190886629651856
aF-0.015761740042231822
aF-0.018584063847546958
aF-0.00854469869943033
aF-0.0358858511843717
aF0.0
aF-0.004625399870622476
aF-0.032924009785449265
aF-0.025918804722081606
aF0.002886607941540106
aF-0.0041718322471299765
aF-0.009518826283914365
aF-0.019725116967836572
aF-0.010351378818366322
aF-0.020782338061947556
aF0.0
aF0.001429415872799148
aF-0.01905445518962748
aF-0.010058736477435153
aF-0.002950748068140964
aF-0.004141460120083093
aF-0.003955785926777779
aF-0.016313867183833347
aF-0.0031195994836743244
aF-0.0034089802035909733
aF0.0
aF-0.004972595849335664
aF-0.004728564686344716
aF-0.0439470520835605
aF-0.044424442987368626
aF-0.014152317931812115
aF0.005157056833725386
aF-0.003983743215937324
aF-0.09133641625842968
aF-0.023338701208728132
aF-0.10200264949820785
aF-0.004609970344479336
aF-0.018293956502916292
aF-0.020853351606860852
aF0.0036291304847948175
aF0.0049246828731156185
aF0.0
aF-0.014360670420570338
aF0.006798272993215927
aF-0.009133085907603488
aF-0.002653073959655422
aF-0.006807868480098477
aF-0.02772470949662182
aF0.008007363112645459
aF0.004970234873558322
aF-0.0067110066280504106
aF-0.0006263919704129169
aF0.00477580743059107
aF-0.00794803173884541
aF0.0005162330046527249
aF-0.02713690601638127
aF-0.025364151656766875
aF-0.01399222635595258
aF-0.007337942686832754
aF-0.00017495877311941768
aF-0.014555346293110394
aF0.00492164809432933
aF-0.00456456795026293
aF5.0529194165753466e-05
aF-0.002030043691868804
aF-0.005218895545900497
aF-0.0019361537242280455
aF-0.00048691714938557326
aF-0.010771095900114429
aF-0.05322765928916789
aF-0.011428403905585378
aF-0.002159749786223578
aF-0.002159749786223578
aF-0.013956251957863982
aF-0.006580792377921695
aF0.0
aF-0.0038571311807797395
aF-0.08890391147434543
aF-0.007162773869861817
aF-0.018212237439123938
aF-0.010972563088271114
aF-0.029318901205066604
aF-0.0041931509751562505
aF0.007273783771900601
aF0.005035532082790251
aF-0.0020576785833361557
aF0.0027377163206214468
aF-0.004712240562085238
aF-0.0049966430693383895
aF-0.005101143171467913
aF-0.011110322512549817
aF0.006026081675747892
aF0.005083250324048774
aF-0.004465560069220946
aF-0.004428562869336259
aF-0.007307051985193951
aF0.005022465080107333
aF0.005022465080107333
aF-0.007836424035901662
aF-0.08170533075744464
aF-0.0028000976558784038
aF-0.004680829164691703
aF-0.0026038052997569556
aF-0.03837559211175246
aF0.0
aF-0.0010095573004795034
aF-0.00467179649712262
aF-0.0042575056870400385
aF0.0007986664000694489
aF-0.00796463930950018
aF-0.03970994449153068
aF-0.004959445314695839
aF-0.00876640786088503
aF-0.017697763036118974
aF-0.032656526146810576
aF-0.0048930708859883385
aF-0.00949236024518106
aF-0.008146506071962085
aF0.021111259905436622
aF-0.053402299332288405
aF-0.00038282878317333737
aF-0.004482848164022788
aF-0.0014264205561631185
aF-0.004192261044440574
aF-0.003947354538779173
aF-0.0049966430693383895
aF0.005369846941299589
aF0.004321525265780794
aF-0.0022170009503154993
aF0.006457041641988557
aF-0.021429521223989837
aF0.005152012733186408
aF-0.05227160977990296
aF-0.01266884351221875
aF-0.06587318433214966
aF0.0004395813994702701
aF0.0
aF-0.0015124300748092239
aF-0.003798094203354612
aF0.0031590373450670686
aF-0.002278495052319016
aF-0.004737289777359614
aF-0.04897985350695872
aF-0.003959328714537929
aF0.0
aF0.0
aF-0.00478418794115643
aF0.007309327835979635
aF-0.0034111045322399868
aF-0.008951634604409073
aF0.005065316346801236
aF-0.004777164471534978
aF-0.00448918210278036
aF-0.005
aF-0.005
aF-0.003947354538779173
aF-0.008943997608117562
aF0.0025402656534867767
aF-0.004743813727337183
aF0.0015585737916274183
aF0.0
aF-0.005120370398834451
aF-0.00453029036387693
aF-0.004954997872366886
aF-0.006537722003351615
aF-0.003826770564870465
aF-0.011192153251927088
aF-0.0020025276233395666
aF-0.002301921617893378
aF-0.012007711745699628
aF0.0
aF0.003661404133975034
aF-0.018461924487907025
aF-0.009668702904195515
aF-0.021353977866595118
aF-0.0048221395003504915
aF-0.004740284759453587
aF-0.0028346031845746756
aF0.006865266197460422
aF-0.0145740008099184
aF0.0
aF0.0
aF-0.015920110606846297
aF-0.0037554991780985093
aF-0.008116856603922758
aF-0.009075491854476139
aF-0.01121965960937411
aF-0.0047649644360832424
aF-0.009222618482317988
aF-0.006495973572348145
aF-0.0004083882681742198
aF0.0
aF-0.011600582010387904
aF0.004701592540764641
aF0.00032002938444377314
aF-0.0042840332093933954
aF-0.00043923440343433535
aF0.00943876599395706
aF0.005023922547187447
aF-0.004312558653761702
aF-0.004615971239948908
aF-0.004913487341655752
aF-0.042735725061446954
aF-0.005009190046232261
aF0.005023922547187447
aF0.00038461233900409595
aF0.005023922547187447
aF-0.00023769481559081113
aF0.0
aF-0.0032363579396300995
aF-0.004697584966194388
aF-0.019037193038874644
aF-0.015934377338322682
aF-0.004677178208301236
aF-0.04120266672630496
aF0.00522926217922189
aF-0.01765151991558316
aF-0.0032468163273904277
aF0.002484027694152431
aF-0.004889558537299541
aF0.0
aF-0.010478314298034343
aF-0.0008150057304543625
aF0.004952796857014975
aF0.0
aF-0.0038258775495298427
aF-0.004284206470262808
aF0.0
aF-0.0051389393331196685
aF-0.00917789969213964
aF-0.003421376163984209
aF-0.009322259924160178
aF0.000726178641967239
aF-0.10105571123412356
aF-0.004878671734191844
aF-0.00799190040481607
aF0.0
aF-0.033035992727166716
aF-0.048399050552016404
aF-0.010530561892677296
aF-0.009897840292061397
aF-0.029608299294531654
aF-0.003977518489463414
aF-0.0030552101576585625
aF-0.003450794924188931
aF-0.046911944921344984
aF-0.010990194905252507
aF-0.10904281767287179
aF-0.11040905686954328
aF-0.05086007600126314
aF-0.07067771803595296
aF-0.004673147805509652
aF-0.058560570805372664
aF-0.023486836976576362
aF-0.03036172215076538
aF-0.10302398983597233
aF-1.0002366536886664
aF-0.004517069127719376
aF-0.004788631689342223
aF-0.007741646838370144
aF-0.017368234658356105
aF-0.038686251713953776
aF-0.009062570623947075
aF-0.01821069912691302
aF0.0
aF-0.4253748457364783
aF0.04838980445993963
aF0.0
aF-0.0045710896413409
aF-0.006870899627257616
aF0.005095750699593278
aF-0.009673507615174074
aF-0.020502913653347186
aF0.0003155539913949606
aF0.0037315827166940025
aF0.005028414366378964
aF-0.0013465949871187726
aF-0.011980097806108996
aF-0.006788042081752772
aF-0.10334030347444652
aF-0.0046040027384362265
aF-0.38028658998951825
aF-0.030078484428387776
aF-0.004907579103738684
aF-0.15014634279401237
aF0.0
aF-0.23105958335616533
aF0.005472344522243793
aF-0.4551102311352764
aF-0.029222178325498737
aF-0.05798103107234576
aF-0.05055703857082058
aF-0.44950287763888364
aF-0.054278592538239315
aF-0.050515210836012424
aF-0.012653876491225317
aF0.004704795718863788
aF0.06935907296599407
aF-0.016752078351417517
aF-0.022228800308852638
aF-1.2758812677161242
aF-0.020700487203957244
aF-0.019975707901830123
aF-0.18614685533005904
aF0.0030240803150919917
aF-0.6572747088793403
aF-0.21458762728933808
aF-0.49699691555029135
aF-0.16652329451145523
aF-0.002758514350362831
aF-0.04843154124680811
aF-0.04689238611947754
aF-0.00794832624889935
aF-0.03444762055373259
aF-0.01932882192202292
aF-0.030474383998109457
aF-0.021711309168739538
aF-0.0038988412531535893
aF0.015278893821917328
aF-0.14717873720082272
aF-0.026503595731120246
aF-0.09417187997271308
aF-0.10790591807626615
aF-0.13625171781311282
aF-0.004626767723024248
aF-0.004576703171706732
aF0.0
aF-0.0056890538105953585
aF-0.005174444005926982
aF-0.09925613196491623
aF-0.0673172689176333
aF-0.012220675903174182
aF-0.025386466232680854
aF-0.0011584878115584165
aF-0.0045347165657026525
aF0.0007029712649706506
aF-0.027271935057649934
aF-0.00047877288217323434
aF0.0
aF-0.09071959508747558
aF-0.04675032565526022
aF-0.026742495699017262
aF-0.07212775437449416
aF-0.005072973265965403
aF-0.12598124005393666
aF-0.401658822176259
aF-0.47857492373966665
aF-0.022134894248407574
aF-0.007893610816265956
aF0.0035828877654912814
aF-0.057520195005537594
aF0.02289162107807339
aF-0.1449948124257682
aF-0.01530502272241879
aF0.007185766328667558
aF-0.008525240752775724
aF-0.008617762592438887
aF-0.2030918819554883
aF-0.012790289286434893
aF-0.1295603139434639
aF-0.08917621701705514
aF-0.06677980797937409
aF-0.01758467883881143
aF-0.10375766298733667
aF-0.028707305095406623
aF0.008974973772890778
aF-0.018522439209633486
aF-0.03446725804631025
aF-0.04069192399506557
aF-0.01333121391045283
aF-0.019072538133365045
aF-0.01832141366370606
aF-0.03213318343686161
aF-0.018849701462301013
aF-0.043313747335912034
aF-0.24802822294066001
aF-0.006779587551455421
aF-0.16421894886121205
aF-0.2509360696377128
aF-0.09680363516856058
aF-0.0030188400442584
aF0.571013191954869
aF0.0023919488668448837
aF-0.020444024930927736
aF-0.0704825588072363
aF-0.06829257240311751
aF-0.4958747901702988
aF-0.01817773308050267
aF-0.08411484844972997
aF-0.01893051572343283
aF-0.08628452400743239
aF-0.20304700948329518
aF-0.06500423107126715
aF-0.07719794757108739
aF-0.05931462271805319
aF-0.010043821863977271
aF-0.10300581110586329
aF-0.015960196962079915
aF-0.03245641749939102
aF-0.021840738470565883
aF-0.0078062946396437955
aF-0.031860501488815605
aF-0.009368994816310844
aF-0.02665907904661413
aF-0.007477708421483098
aF-0.0030087373164566977
aF-0.06390844495280112
aF-0.004755651025485873
aF-0.04107089136454838
aF-9.40933673164758e-05
aF-0.02562502275470463
aF0.012639116990464553
aF-0.004376352183699935
aF-0.029283263861417448
aF-0.04362306480627831
aF-0.15060489827221996
aF-0.23194831119628587
aF-0.03289184180733778
aF0.0022320911667923463
aF-0.0397379124766622
aF-0.0061017397630835175
aF-0.006453332313551054
aF0.024899340671413236
aF-0.3747358778732637
aF-0.07814142778473508
aF-0.04549403352109491
aF-0.024539530406508855
aF-0.09849161537045253
aF-0.016662550944190224
aF-0.007266538540803293
aF-0.0036633800512367626
aF-0.0047406937084784025
aF-0.007723971575722052
aF0.04349686628144772
aF-0.010180522615505873
aF-0.08519439569167754
aF-0.03100470788785285
aF-0.05031505716884736
aF0.0
aF0.006952258051791963
aF-0.006917926394752908
aF0.005251584778121985
aF-0.03501371992702574
aF-0.09590673322451058
aF0.025245119744730607
aF0.002059184757445113
aF-0.007519643399437269
aF-0.03328898340050515
aF-0.12988702565692078
aF0.0
aF-0.003986836016332598
aF-0.009544711442298282
aF-0.017335832607804098
aF-0.005624163828313022
aF0.008502908655880225
aF0.009759429170945124
aF-0.009392269009964678
aF-0.012099200302188603
aF-0.0065373599737128234
aF-0.0281432839305885
aF-0.03331743014707436
aF-0.00093415600920426
aF-0.007091586896526702
aF-0.017995043810805328
aF0.0
aF-0.0035333089139030762
aF-0.01244413124967556
aF-0.004807109442182538
aF0.013963698400239623
aF-0.008989169541845907
aF0.007509354416290822
aF-0.016597161863055487
aF-0.027730496272165575
aF-0.01829715459436055
aF-0.0036633800512367626
aF-0.06700906959941474
aF-0.01734519377081304
aF-0.08756866395643044
aF-0.07825122895106405
aF-0.021416889838513253
aF-0.12335721351203707
aF-0.044562194381053
aF-0.013211836054793227
aF0.06849468949750162
aF-0.01290354356290575
aF0.011051894517619947
aF0.022252407885563305
aF-0.00705649740145115
aF-0.016751482725194427
aF-0.023924886688964773
aF-0.009418436666144957
aF-0.0018160418383963099
aF-0.10950393430432433
aF-0.04115880556432834
aF-0.043112677287517255
aF0.04978393102978238
aF-0.35416206785589227
aF0.010058574785228553
aF-0.2186465901874535
aF0.0028748693919805647
aF-0.02178158997979262
aF0.0023756941517795683
aF-0.0034016844104170596
aF-0.0025383303244085427
aF-0.057019611403509335
aF-0.10935020122323517
aF0.003514267419934154
aF0.0009197804468164608
aF-0.0067354072641589696
aF-0.012601516656758932
aF-0.004558196966495016
aF-0.04637968842021024
aF-0.04518854685493914
aF-0.023528578115450234
aF-0.009546554952439959
aF-0.04111097632303775
aF-0.02207986664958059
aF-0.021821277592495344
aF-0.0063108418806157585
aF-0.14824408687262047
aF-0.019943907195587997
aF-0.00867106544853256
aF-0.010098479269735526
aF0.026269305828963457
aF-0.015325198383311705
aF-0.004144829818952056
aF0.005872167785938014
aF0.006127328090453509
aF0.0063224986328717205
aF-0.006517690748825735
aF-0.004810938600969227
aF-0.009709951795121394
aF-0.01721298525925087
aF-0.020737360605125647
aF-0.023299031532153604
aF0.0
aF0.011000354957013049
aF-0.03319318712292049
aF0.013200787567678476
aF0.0
aF-0.014203028196442216
aF0.005273933457469821
aF-0.007256453578251924
aF-0.03068365535596667
aF0.004693763445761105
aF-0.01078745462103152
aF8.840910373533045e-06
aF0.0026382401778611985
aF-0.004847120818370064
aF0.0
aF-0.021597433348915125
aF-0.16467614190495528
aF-0.01392699326338
aF-0.13137692875416435
aF-0.04173343075314265
aF-0.00919573215766638
aF0.03369168064313832
aF-0.003939400789985515
aF0.01136324463723815
aF-0.0006230913585482667
aF-0.011670191479741132
aF-0.053124001040999236
aF-0.03961281852329017
aF-0.042343269481304194
aF-0.0954521421641399
aF0.008043162141199683
aF-0.004159479637963725
aF-0.0030497900866821026
aF-0.004957738595596586
aF-0.011482874300084048
aF-0.03498634878978987
aF-0.14561735884340732
aF0.007333206926682801
aF-0.0050966466037524515
aF-0.03175278943368709
aF-0.008712969041170714
aF-0.012970343414135846
aF-0.00038622237431520674
aF-0.02370996522501476
aF0.009134320218927398
aF-0.003792896753582117
aF0.016298064979681226
aF-0.0015273465801248058
aF-0.0031972120292540207
aF-0.014946783035427026
aF-0.04991908550605374
aF-0.006665380146192348
aF-0.10739178085875407
aF-0.004515209530479901
aF-0.16786496355231928
aF0.0202003951464687
aF-0.4596193606928371
aF-0.0475454348475089
aF-0.03219151189005595
aF-0.02602649968677803
aF-0.0052724883633604395
aF-0.05027013162403526
aF-0.024293328766466338
aF-0.019316281603791785
aF-0.00020148654247098175
aF-0.02919419712280846
aF-0.004689719654454714
aF-0.00470773979907552
aF0.009940022069002487
aF-0.014336020035062284
aF-0.06672098854312393
aF-0.0409166391855469
aF-0.00986580952560494
aF-0.00859621186761223
aF-0.013947639048697844
aF0.009478004785991003
aF-0.014000615664480302
aF-0.019626262782681935
aF-0.023503074853766157
aF-0.020167912339295255
aF-0.07529906279829206
aF-0.1337864364545016
aF0.014793623648724934
aF-0.014473546707920474
aF-0.004706715041552892
aF-0.0035796298413716754
aF-0.0035796298413716754
aF-0.01286359556908348
aF-0.01064734393776518
aF-0.004684572085909166
aF0.0013420182529576543
aF0.006381659186691676
aF-0.008575725842604161
aF-0.06231979258826243
aF-0.004728092535966529
aF-0.008093371521058084
aF-0.004812703742166451
aF0.0
aF-0.028895308325735995
aF-0.004909622153969892
aF-0.04235892821289601
aF-0.004706715041552892
aF-0.01862877940335212
aF-0.00039610007186283104
aF-0.008616434648256233
aF-0.004814452608284619
aF-0.004821617847473818
aF-0.008397017522773616
aF-0.02829933702626284
aF-0.01962834182198803
aF-0.016298395731180318
aF-0.022557834670056606
aF-0.03817842216501603
aF-0.011068497279018803
aF-0.018987811299751245
aF0.005701435597509934
aF-0.017513346373844045
aF-0.03363427390695539
aF-0.10041467466007943
aF0.0
aF-0.02722076816653341
aF-0.014280441499814805
aF0.0009510749307819442
aF-0.00485244842784654
aF-0.008351629024262466
aF0.002218343699764447
aF-0.01582661738013065
aF-0.0895342433711128
aF0.03111107950044721
aF0.10169483348814592
aF-0.11131185652583526
aF-0.023004775599329307
aF-0.004951607314172947
aF0.00013078731857636607
aF0.011765705213622565
aF0.008341361499232612
aF0.05818921924996252
aF-0.009704790265547741
aF0.004938866562645715
aF-0.018953585132250983
aF0.017978842518590193
aF-0.015058318312943528
aF0.011708265749545942
aF-0.025679048575032528
aF-0.01934002940414487
aF0.007478055499444133
aF0.00955636019931673
aF-0.004822222881698566
aF0.009539566257185994
aF0.0069579224182137935
aF0.00525381534735119
aF0.047496504558419646
aF-0.02212978711074297
aF-0.0003234185185690486
aF-0.07501454693471866
aF-0.03226681035544446
aF-0.0019173173350658978
aF0.014508747071072687
aF-0.024217126860738833
aF0.0011913669267307387
aF-0.03579746310556309
aF-0.010249344925118257
aF-0.06363386294149657
aF-0.004941797151121019
aF-0.0049755645333031395
aF0.0030145077734812604
aF-0.09611979580162168
aF0.0025464215331496226
aF-0.024631077520087415
aF-0.012858423643925296
aF-0.20422624353744157
aF-0.02776912767652618
aF-0.1351666172969656
aF-0.012511810582805422
aF-0.009480768006533621
aF0.004828201019913174
aF-0.00991418908066078
aF-0.039688908987588
aF0.0063337865366206916
aF-0.037232096094506485
aF-0.009709530263244379
aF-0.013299203074670838
aF0.04033188462442739
aF-0.013127776426057182
aF0.0033205643173948173
aF-0.0026880688333269873
aF0.00857113665312854
aF-0.003976776183330776
aF0.00025651794482642104
aF-0.01654188418824065
aF0.0080294119455808
aF-0.0056528116050676355
aF0.004811746458694256
aF-0.225756499506428
aF0.010854510565010725
aF-0.25039716773360704
aF0.06103817426777026
aF-0.04050277177209262
aF-0.007606864123012608
aF-0.056954007787792825
aF0.026364151847740467
aF-0.00880540265881931
aF-0.004324583149639909
aF0.006830952951330316
aF-0.0023094706672311107
aF-0.0031558164290278233
aF0.000957221719195077
aF-0.018807231886128158
aF-0.02061207000801405
aF-0.5902560220022517
aF-0.03369403926129346
aF-0.0007066968423344362
aF-0.09886605377094265
aF-0.05081467297034074
aF0.0017158609058973472
aF0.22929477068886542
aF-0.002613413626222208
aF0.04432012590856414
aF0.23749834624678806
aF-0.151178921464756
aF-0.0009419652225283842
aF-0.0003723135875842651
aF0.013915688387790417
aF0.015559322000776284
aF-0.02603042764799945
aF-0.008753176333193979
aF-0.10383054214074151
aF-0.01803511915606561
aF0.0009871104074702236
aF-0.00561582045912706
aF-0.004157705361317534
aF-0.004717800855477304
aF-0.006055433063403099
aF-0.1300905850594115
aF-0.004307070203914902
aF-0.004503360197194547
aF-0.016584762588485638
aF-0.005120471758771601
aF-0.0299596993610165
aF-0.032252559667595174
aF-0.0039346170531343455
aF-0.0048903767353511655
aF-0.0043680041896752364
aF-0.0025340552163046633
aF-0.00439102059311482
aF-0.006064225554856987
aF0.009086553187069236
aF-0.02060195662853627
aF-0.010361556989824213
aF0.0
aF-0.0005354593109270322
aF-0.009748179551254111
aF-0.00757938808854331
aF0.006174689695467497
aF-0.0035681751896958595
aF-0.004284769873630423
aF-0.0032690040104101543
aF-0.008948686560503159
aF-0.019630096578028333
aF0.006649099922770992
aF-0.0014257671577826581
aF-0.0038828349618419645
aF-0.004702659187124059
aF-0.010160984832061907
aF-0.004861769666811469
aF-0.013230815944067956
aF-0.004520372653096182
aF-0.019813702547876268
aF0.0019037433998054997
aF0.0025644137002067665
aF-0.003768977371781189
aF-0.004101384387922731
aF-0.025394375458364364
aF-0.01382512440779424
aF0.004918565976749837
aF-0.010283796660626794
aF0.003557300514323625
aF-0.00965044897477676
aF-0.012250539666785082
aF-0.08070642013056066
aF-0.04751511916804621
aF-0.06284210878992146
aF-0.05508610592438819
aF-0.02046129182666863
aF0.005687673200188051
aF-0.03536662816912098
aF-0.030375052469039866
aF-0.03714351305633803
aF-0.005538338249093862
aF-0.023290255049923016
aF-0.08175219859960733
aF-0.6073533304944777
aF-0.03532199297089039
aF0.005572797214478544
aF-0.1234516904038109
aF0.0
aF0.009381398246024684
aF-0.004237323626953075
aF-0.07018426464136825
aF-0.00260513267549607
aF-0.003624675691018762
aF-0.004427346504308284
aF-0.12803602550532345
aF0.005487128099136358
aF-0.02149601386817674
aF-0.04418283978768652
aF-0.037993842908495216
aF-0.0049270887644638
aF-0.013857664505615597
aF0.008013349357778369
aF-0.011116104359788015
aF-0.14952684096800262
aF-0.009287385616116948
aF-0.006097437751594048
aF-0.005564933437584263
aF0.01769960671154488
aF-0.01248559450205318
aF-0.05061614700240288
aF-0.005257907151199877
aF-0.01276566263004989
aF-0.003763486371161085
aF-0.021260141455755527
aF-0.11018464099176617
aF-0.018131928176095654
aF-0.026788648387539853
aF0.0
aF-0.009824505796796591
aF-0.02031311911168564
aF-0.014095988537122236
aF0.016984843883597674
aF-0.02936878147768753
aF0.0006963808290598702
aF0.006372357776400039
aF-0.003829755615955302
aF-0.011235402929589215
aF0.008577602436227127
aF-0.03267106578096125
aF-0.03799977438897217
aF-0.12515731292199067
aF-0.07151720955906404
aF-0.09655186378063894
aF-0.04340156081221553
aF-0.009315612865499505
aF-0.01154045657657504
aF-0.011605377672754205
aF0.021210611230178242
aF0.0181109393705799
aF0.0012027663373129801
aF-0.012156522895630503
aF0.046255400174898785
aF-0.006515216590771398
aF0.02254364657838562
aF-0.010277589485434106
aF0.0063337865366206916
aF0.014363794283308903
aF-0.01077929801039217
aF-0.01859176150662433
aF-0.019392228280257044
aF0.012045310283262842
aF-0.02974800869530554
aF-0.032610939194611666
aF-0.01790697309729992
aF-0.019414162751941074
aF-0.0035062380933125973
aF0.003350211977746497
aF-0.00273025300961328
aF-0.021304596142570464
aF-0.004848155879717253
aF-0.031220487600717065
aF-0.003485275085496281
aF0.004991584517851306
aF-0.005017450537071724
aF0.00649610661974039
aF-0.016953020969423915
aF-0.01644576406566574
aF-0.03514827491360214
aF-0.017698450973385738
aF-0.030454584942319583
aF-0.0118690115036577
aF-0.013988891187735272
aF0.005305630852165549
aF-0.06828416110036163
aF-0.033311119850031656
aF-0.04559222633785626
aF-0.018733793193731207
aF-0.14921519341823059
aF0.0016935335272532624
aF-0.007088642697288356
aF-0.056540840435900755
aF-0.022541828284799018
aF-0.027264977908333134
aF-0.04448972170584706
aF-0.00857006042413102
aF0.0003373086302459194
aF0.0
aF-0.011825946312788053
aF-0.006411500200595069
aF-0.03361315275887057
aF-0.01348411244440614
aF-0.04294997210585565
aF0.0999815381621694
aF-0.004658325663303172
aF-0.0022746070376692025
aF-0.018410694329144175
aF0.0018078378110521522
aF-0.023462606686967365
aF-0.07532807518257285
aF0.007175674007962174
aF-0.2158077811338328
aF-0.06592047970492095
aF0.004704634321760711
aF-0.0049229154108289324
aF-0.037877628407467175
aF-0.012272670572311031
aF0.012167137388422846
aF0.007874314145752093
aF0.007451547872372495
aF0.0003880976353232623
aF-0.015979248712340955
aF-0.20803604425212469
aF-0.055409688710885543
aF-0.15444947495575143
aF-0.011975836360064693
aF-0.009275582053029535
aF-0.14112727285219095
aF-0.0049804496197283984
aF-0.026359585245542223
aF-0.0827870270530539
aF-0.007638012011910498
aF0.015706434301788582
aF-0.003082222109958944
aF0.0035508663800188824
aF0.011965320599135198
aF-0.018894888636376325
aF-0.009886521015610118
aF0.0002585466268381475
aF0.04492606004147692
aF-0.02953006057270706
aF-0.049131341015896085
aF0.03685328699769182
aF-0.04296766890255479
aF0.002140098107919876
aF-0.009414835659398353
aF0.02642696876863855
aF0.00749777388324278
aF-0.012225130649204271
aF-0.01166424338317475
aF-0.009300500616046136
aF-0.10210262172066588
aF0.00276673948914483
aF0.0007513089392872218
aF-0.023147930840922516
aF-0.012440257333111812
aF0.007789347164806941
aF0.004878673792334773
aF-0.04228644888145191
aF-0.024039122752055483
aF-0.0048935202019205655
aF-0.015086687867213996
aF-0.021063983840846488
aF0.005454431221367833
aF0.002505377801869781
aF-0.006065521601176937
aF-0.029380237749066025
aF-0.014228464421047627
aF0.04056940862490853
aF0.0030827248546843843
aF0.00197216079116134
aF-0.00969239082874173
aF-0.023262645035360345
aF-0.0027236753447954774
aF0.21399323242168294
aF-0.023978011852964783
aF-0.036095478843239506
aF-0.00975388872697466
aF-0.003039894488019909
aF-0.0033814483938084815
aF-0.015115302398992374
aF-0.0001011084551934136
aF-0.010008931112384269
aF-0.0969258713478567
aF-0.0038333688011145946
aF-0.011228865749101816
aF-0.013262362694563833
aF0.13097897642512923
aF-0.02153674472196009
aF0.13728260473970302
aF0.015469914407339832
aF0.029341180537887073
aF-0.004846300621622232
aF-0.10457296412042436
aF0.00337789847826034
aF-0.05847063096205264
aF0.010252644719806674
aF-0.012600795276097235
aF0.011823421774971097
aF-0.09230445612855079
aF0.002839289908068172
aF-0.1161483606390172
aF-0.013309495149644896
aF-0.023673469053608984
aF-0.03565671062805696
aF-0.02176182572170517
aF-0.02743807046598454
aF-0.052158641629986784
aF-0.12206561264067209
aF0.016164877974726016
aF0.003227924969978027
aF-0.007133907508038521
aF-0.028043692757704856
aF-0.017626966204970722
aF-0.018338570670859918
aF-0.005822279198604193
aF-0.03805290262066215
aF0.04114741201985806
aF0.004702547477369635
aF-0.14290881099533986
aF-0.00044013060090724405
aF-0.00384237746094338
aF-0.005711995746256269
aF-0.004520176511255242
aF-0.009288458130453963
aF-0.01211662655555745
aF-0.004907118363733924
aF-0.004215987324349772
aF-0.07473237774219844
aF0.02652422907860998
aF0.005311102242117369
aF0.010251914659118046
aF-0.02485739008772312
aF-0.007338641234464973
aF-0.325188879298432
aF-0.06214056639895403
aF-0.04888566384463335
aF-0.08818380238010291
aF-0.010231926248666132
aF0.018119673846678747
aF0.03629307629907938
aF-0.002968614648286186
aF-0.03060416836281677
aF-0.0076306748546969595
aF-0.019230144650060933
aF-0.004878414010869011
aF-0.004851054092699355
aF-0.004736261474854941
aF-0.003719103747282144
aF0.0012052379405483827
aF-0.01710623922437335
aF-0.0041129977494805195
aF-0.0044159808648700696
aF-0.005560461320341168
aF-0.00435916336698339
aF-0.013676316634183297
aF0.004991024819458167
aF-0.0027749994433115713
aF0.0
aF-0.03059333372749564
aF-0.004543516686297453
aF-0.027207229888814292
aF0.004991024819458167
aF-0.008587756279435851
aF0.004874413547026264
aF-0.0401186636522644
aF-0.020338852197968472
aF-0.022655958483351453
aF0.18956240514439385
aF0.01777859350992938
aF-0.004964119110560898
aF-0.004927018520921896
aF0.054854715850905025
aF0.05563348727116711
aF0.0
aF-0.035867735349605696
aF-0.1539986874043455
aF-0.014791374010247597
aF-0.03353487150905437
aF-0.013450477634586996
aF-0.18663439154592487
aF0.0043742507648043645
aF-0.004558045913603985
aF0.0039018011469961504
aF-0.024891382954468952
aF0.003954364162730911
aF-0.011425734540027734
aF0.0030968492884919496
aF0.005561604855261319
aF-0.05784298356860269
aF-0.005018226425181748
aF-0.009796203641060583
aF-0.024549511614965734
aF0.005045439046598246
aF-0.03538574566412482
aF-0.11929051806756287
aF-0.10139111777574243
aF0.005327345991680832
aF-0.031414349941378705
aF-0.001553905655233237
aF0.011479266080730396
aF0.0005308611025992907
aF-0.003418282574261033
aF-0.0031182683916162524
aF-0.022268248441864126
aF-0.009476992559360296
aF-0.00676255364545977
aF-0.05089021077394569
aF-0.004515107025423242
aF-0.032844010539654675
aF-0.00472055430072942
aF-0.003292280989896647
aF-0.008913033233700044
aF-0.00157845742529871
aF0.0007117677938613017
aF-0.004870225687464849
aF-0.0032270366823467147
aF-0.008046011370391818
aF0.0023052081520041887
aF-0.023751449860959097
aF0.0026906530546299185
aF-0.008764650672570536
aF-0.0020312080121689747
aF-0.00889503686321439
aF-0.005806916271481166
aF-0.004510602268882692
aF-0.008577834894317203
aF0.0025630530519384406
aF-0.007322728543775079
aF-0.010332099490234972
aF-0.0038773263309421695
aF0.0
aF-0.005329566761713954
aF-0.007861443608220817
aF0.0
aF-0.004676181453204182
aF-0.009447958391546224
aF0.003590835653604229
aF-0.018179242796182236
aF-0.22353635399289049
aF0.0012305932478357462
aF0.005684435038411486
aF-0.0061046780620602065
aF-0.0021261182385559365
aF-0.24812973037561542
aF0.006315447463428849
aF-0.10382511803164371
aF-0.25389890620976424
aF-0.02812610289722091
aF-0.00474059200210275
aF0.0
aF0.0
aF-0.019343001478705782
aF0.004248139009766522
aF-0.008330401941144372
aF-0.003046807624925177
aF-0.009568949800151922
aF0.004377162215998058
aF-0.007876900908726227
aF-0.009158456465456377
aF-0.004385399472001954
aF-0.004767845982712321
aF-0.002590038229972172
aF-0.005450195631758319
aF-0.011619080920063182
aF0.0
aF0.010664633452458046
aF-0.013877412030112527
aF-0.007932718375754296
aF0.004441155563970661
aF-0.004767845982712321
aF-0.0031458898864110824
aF0.011010441314853698
aF-0.0008150739734965017
aF-0.0048221092363047256
aF-0.010729212213594123
aF0.00510935121955858
aF-0.0035552492223867825
aF-0.0007584914299441505
aF-0.006918948796559878
aF-0.017066595889588393
aF-0.00011394954545399438
aF-0.012047247908763757
aF0.0018564964919888039
aF0.0
aF-0.007219980765087076
aF-0.02087186713136464
aF0.0054192389926662815
aF-0.0038240401086954106
aF-0.014838168010200036
aF-0.0019534355049484805
aF-0.009163589568127746
aF-0.006731216911443818
aF-0.009121025458987634
aF-0.004117791421129649
aF-0.01478288788821306
aF-0.011326357396988689
aF-0.0021107433759274073
aF-0.058951456964073855
aF-0.005358087431142462
aF-0.014187260557500804
aF-0.010096514040933327
aF-0.02312629565315221
aF-0.014043763914506178
aF-0.02540761755560476
aF-0.009581973714712614
aF-0.002633762859001169
aF-0.006802621567014775
aF0.005756120964896698
aF-0.016882980481899804
aF-0.02109093149607019
aF0.0
aF-0.004510289600579159
aF-0.0049785105026491795
aF-0.00441629757918073
aF-0.0185192339965313
aF-0.0049717928116710455
aF-0.004934226169295868
aF-0.004549475384564048
aF-0.007357910307632033
aF-0.00506667281994451
aF0.0
aF0.0
aF-0.009035025429749894
aF0.005498871198377711
aF0.006843448744840613
aF0.002723065941763414
aF0.005085493765149134
aF-0.009561552374950197
aF-0.013752917156921386
aF-0.05985446189771906
aF0.0
aF-0.018122794851856115
aF-0.008088874689267757
aF-0.004989319774788839
aF-0.007582918738675879
aF-0.008646259164101952
aF-0.004344649661972584
aF-0.00463320934009675
aF-0.004107912731224345
aF-0.004980863791514665
aF-0.004483152090402633
aF-0.009122249177952589
aF-0.004999181505962051
aF-0.006620227525087391
aF0.0
aF-0.0029802506841151116
aF0.0
aF-0.0037742626956645295
aF-0.016938662181091333
aF-0.008748707599349741
aF-0.009774908818047864
aF-0.0437075291132601
aF-0.00441629757918073
aF-0.004308520283225602
aF-0.015720231576598763
aF0.0
aF-0.009419668258037386
aF-0.008627208369709143
aF0.0
aF-0.0044634198556789675
aF-0.00456461316646371
aF-0.004216441608055564
aF-0.013998877964525053
aF-0.00399554242583154
aF-0.014911275069221143
aF-0.003939247576978231
aF0.0
aF-0.00486577186178114
aF-0.004938777692692623
aF-0.004938777692692623
aF-0.0051189664917454915
aF-0.009752175831842243
aF0.0
aF-2.5480713202462833e-05
aF-0.00497596772121323
aF0.0
aF-0.01320237035976511
aF-0.01320237035976511
aF-0.003918203899462479
aF-0.01332391331201593
aF0.0
aF-0.004768317006249825
aF-0.009730545441237946
aF-0.0047917677485453235
aF0.0
aF0.0
aF-0.024954082469511706
aF-0.004768317006249825
aF-0.022519509771292318
aF-0.01376818495711906
aF-0.004088143724234238
aF-0.004230495292360859
aF0.0
aF0.0
aF-0.004967230138412906
aF0.0
aF-0.003846266348868859
aF-0.004167876108399527
aF-0.010432960404992
aF-0.00949869970364908
aF-0.016869812149130595
aF-0.0044122577672346605
aF-0.004461833061525567
aF-0.009470422051554666
aF-0.016376526005311184
aF-0.008237625171263968
aF0.0
aF-0.008823077607887222
aF-0.009269386907015172
aF-0.003707171812139385
aF-0.11259735763368968
aF-0.012646019048115614
aF-0.004645793452971728
aF-0.008935159752486783
aF-0.004792146365513387
aF0.0
aF0.0
aF-0.004820789408763419
aF-0.018818469622937584
aF-0.018884245220444615
aF0.0
aF-0.004453143395666485
aF-0.004858406512757822
aF-0.004230495292360859
aF0.0
aF-0.023009622424565827
aF-0.013063498463279938
aF-0.02064721187204088
aF-0.013143510448210466
aF-0.010961399348121287
aF-0.004665708194568567
aF-0.01892960244943237
aF-0.013988550178188982
aF-0.009840854094673961
aF-0.014067608994123914
aF-0.0567448003843086
aF-0.10815757657574025
aF-0.046542041302390945
aF-0.04516663668688924
aF0.0
aF-0.004665708194568567
aF-0.011709144723061466
aF-0.004230495292360859
aF-0.021467673146759365
aF-0.011695447671418994
aF-0.017278041877991437
aF0.0
aF-0.013009477501940231
aF-0.013982299172341079
aF-0.024081084735027597
aF-0.004603804184667612
aF-0.07004993014857616
aF-0.02680185210477867
aF-0.032104396166487935
aF-0.017520133355926892
aF-0.004665708194568567
aF-0.007840933693143827
aF0.0
aF-0.008620338017048116
aF-0.031507587326601395
aF-0.004999181505962051
aF-0.016685453368832714
aF-0.013805195954789675
aF-0.02617537532234316
aF0.0
aF0.0
aF-0.01665334317159628
aF-0.03950824996127029
aF-0.009258710177495539
aF-0.00878235875016272
aF-0.004820789408763419
aF0.0
aF-0.005052676910306731
aF-0.011667774580347312
aF-0.004999181505962051
aF-0.0038391317026898477
aF-0.004122799797825007
aF-0.004170022307033964
aF-0.013184518361400022
aF-0.008223122657691543
aF-0.004651082692568631
aF-0.014412836792552407
aF-0.012458265204430496
aF-0.004122799797825007
aF0.0
aF-0.008653798504136145
aF-0.0049918402549260985
aF-0.024588321684080327
aF-0.012941359467547618
aF-0.007950867334104607
aF-0.014299315315187756
aF-0.004170022307033964
aF-0.002867109819595093
aF-0.004122799797825007
aF-0.004704664460125923
aF0.0
aF-0.02400145709301897
aF-0.07732957256821806
aF-0.0087766104122203
aF-0.0515673662557614
aF-0.004371828897412666
aF-0.0030487873276304396
aF-0.0031988933005566386
aF0.0
aF-0.003687380040508664
aF-0.0049918402549260985
aF0.0
aF-0.053077147018685426
aF-0.012163556655050898
aF-0.011592532559633242
aF-0.008447102698971656
aF0.0
aF0.0
aF-0.004577344058479957
aF-0.0041013297907325896
aF0.0
aF-0.008025996449198403
aF-0.022032906534060478
aF-0.008452015152321243
aF-0.004662620923374172
aF-0.004329215354496236
aF-0.014042152241794423
aF-0.028812984700768984
aF-0.004721551062791467
aF-0.13986170362298375
aF0.0
aF-0.012466728088137249
aF-0.010187331785431505
aF-0.07414873144229807
aF-0.008534297891150176
aF-0.004139475685228285
aF-0.003846266348868859
aF-0.009564133617915407
aF-0.00935882583175637
aF-0.016181420326609665
aF0.0
aF-0.020242016241072656
aF-0.003793083580446049
aF-0.0045689743792023405
aF-0.00800653626936871
aF-0.005052676910306731
aF-0.003784481775597483
aF-0.011356703958114604
aF-0.03457486780898151
aF0.0
aF-0.0049880568252175655
aF-0.004964142665418439
aF-0.004665663010929475
aF-0.002867109819595093
aF-0.0294689068322525
aF0.0
aF-0.004139475685228285
aF-0.00431200342046673
aF-0.004983945905197374
aF-0.004506496756774585
aF-0.003707171812139385
aF-0.0049143570795436
aF-0.004894545931727634
aF-0.009153800657626936
aF-0.003977136547739933
aF-0.005052676910306731
aF-0.00350623995595481
aF-0.03692131572474378
aF-0.009780809434694098
aF0.0
aF-0.004792146365513387
aF-0.00869004113513341
aF-0.012807123433471729
aF-0.019258215608535474
aF0.000617627053379268
aF-0.004023975655408228
aF0.0
aF0.0005238304079564025
aF-0.001836802465007819
aF-0.012382307841717172
aF0.002686818523802579
aF-0.043563273968327355
aF-0.021904761367108685
aF-0.12157734555792707
aF-0.07683296936076336
aF-0.011961241023183843
aF-0.01085831425544767
aF-0.037081309731822984
aF-0.002524432985512845
aF-0.00820138299874323
aF0.006303618873632915
aF-0.004510271791117494
aF-0.0013245533865612314
aF-0.04340340074853503
aF-0.0021720480318383863
aF0.003072765588938695
aF-0.003859712054309133
aF0.0001160467965379882
aF-0.020070864835164237
aF-0.00018620377802119556
aF-0.08626045404689599
aF0.00028245984117294
aF-0.009156565014372089
aF0.0
aF-0.008363898691153551
aF-0.09370504079874711
aF-0.10957199178557271
aF0.0
aF-0.004884094072522111
aF-0.003511423008237524
aF-0.0045661557270601375
aF-0.027413482406070427
aF0.004885557834122134
aF-0.028642800065300598
aF-0.02104303854463648
aF0.03514332141231772
aF-0.007154212097661399
aF-0.05464151880759113
aF-0.10579075683627734
aF0.0
aF-0.004979898796007802
aF0.006924934126802125
aF0.0
aF-0.0048292126431143875
aF-0.01823839869594267
aF-0.004588447593989994
aF-0.004768429876858653
aF-0.01181669529576709
aF0.0
aF0.0011507405323034313
aF0.005221249858674766
aF0.008856094025389009
aF-0.027140468743199683
aF-0.04331107683311866
aF-0.006525127520324093
aF-0.0031755929296017416
aF-0.008152843230146041
aF-0.004927051438288879
aF0.007409741855027401
aF-0.0042098688908787105
aF-0.004992976236020635
aF-0.004317443611648049
aF-0.0007728847556527901
aF-0.01718256129237245
aF-0.004729978027797133
aF0.005596078649970105
aF0.002893046278542321
aF0.013119355215403873
aF-0.011983065877715934
aF0.05687606852017475
aF-0.0033221182439964374
aF0.0006522304240993112
aF0.027436262549776647
aF0.09521310579278092
aF0.00871818556361336
aF0.04211827829941989
aF-0.005938651065812303
aF0.051486313963903914
aF0.00908693237266563
aF-0.0016298774623997488
aF0.0009213077436686147
aF0.007024278676601884
aF-0.018310467277167786
aF-0.0012275706103055306
aF-0.017532410461569798
aF-0.03021063135311844
aF0.022849555191215322
aF-0.011648407029478721
aF-0.01783556883338086
aF-0.012477353468908738
aF0.005349794571306894
aF-0.004359172197345865
aF-0.0002066464018626703
aF-0.008954027452044558
aF0.004509974585409446
aF-0.013102796775452312
aF0.0
aF-0.034752777649154465
aF-0.006680293413488996
aF-0.052957524026075814
aF0.0017600783603462906
aF0.0026128269010696607
aF0.011032081214479192
aF-0.006587603537261375
aF0.006343399068266424
aF-0.01951592616583327
aF0.000369271858229484
aF0.014234657135777413
aF-0.00426839952992933
aF-0.007157435370556381
aF0.0
aF-0.005485064715677812
aF-0.021398089958727076
aF-0.019949905982793857
aF0.01846300690280213
aF-0.0046176680930315435
aF-0.004967447909914799
aF-0.00421195612343675
aF-0.004857718548177481
aF-0.007982137667903278
aF-0.004485548931914829
aF-0.0031855778600178037
aF0.0010012027583181388
aF-0.003802955649777552
aF-0.01543475162552555
aF0.005655832808288375
aF-0.0044274732655217855
aF0.0
aF-0.02628618160317414
aF-0.10269839689131696
aF0.0047312380863117655
aF-0.02613267995783619
aF-0.0042906930017479325
aF0.0
aF0.004704795718863788
aF-0.008108403625846992
aF-0.004956298118613074
aF-0.040432810924177255
aF-0.14198740645992622
aF0.0
aF-0.003940026134851822
aF-0.172077399470436
aF-0.02488781940071921
aF-0.004288887752874739
aF-0.03503758568504015
aF-0.05842574265209562
aF-0.059338848437978806
aF-0.003354174678070718
aF-0.0039805459428219675
aF0.0
aF-0.11221146271997119
aF-0.008161066597415941
aF-0.0028000976558784038
aF-0.0045888527895291565
aF-0.005653881429669768
aF-0.017851584968623047
aF-0.003477832668185879
aF-0.009268996296572568
aF-0.007195685601468466
aF-0.006591552393229713
aF-0.0024013592672852153
aF-0.004972100398169479
aF0.0
aF0.004228319573453874
aF0.0006250267554863374
aF-0.004313848735538469
aF-0.009914763294181193
aF-0.009609389074650646
aF0.0
aF0.001646218498779025
aF-0.003406657503591522
aF0.0
aF0.001480178535879994
aF0.0
aF0.005472344522243793
aF-0.00987189444413857
aF-0.003662384795267719
aF-0.005002188145186103
aF-0.01066097844788635
aF0.006845093506001551
aF-0.004733085762637027
aF-0.0007993109185204534
aF0.005307377390816328
aF-0.0007993109185204534
aF-0.0046475982872095116
aF-0.009792992484008181
aF-0.030708672612351464
aF-0.004699291711522999
aF-0.0072951923977118485
aF-0.059514674552777896
aF-0.07084886144924159
aF-0.013481249578548972
aF-0.008621296641954268
aF-0.023546013471357957
aF0.0
aF-0.016067930217666643
aF0.0
aF0.0
aF-0.03527923791899282
aF-0.01342041990029326
aF-0.009467357795405607
aF-0.11249951910509337
aF-0.04041398924519274
aF0.006757753761025347
aF-0.05525765758125413
aF-0.009746988672253187
aF-0.007241645634667797
aF-0.018194614485875126
aF0.006624328059710026
aF-0.02317176589904404
aF-0.05649115272315172
aF-0.05853852632939948
aF-0.019618800046362024
aF-0.011608209821853153
aF-0.0034139489195617466
aF-0.052758149291214834
aF-0.003771475426112161
aF-0.01420314122119892
aF0.002167063508782645
aF-0.007369389169299668
aF-0.008748326250033632
aF-0.004983197479309882
aF-0.019254241869597448
aF-0.025821066346016747
aF0.0023144461547922506
aF-0.05483143968537044
aF-0.0645865300062043
aF-0.01132682287480572
aF-0.011339715747057721
aF0.0
aF-0.0036723399668969078
aF-0.01658563524906568
aF-0.056741272643801854
aF-0.0040026986195854895
aF-0.07137409576573531
aF-0.07364547027002194
aF-0.06720259648307925
aF-0.011475942369024519
aF-0.12971405827604685
aF-0.004994791749820492
aF0.009607485601418444
aF-0.02534565320815684
aF-0.00456902551054536
aF-0.006225782642448681
aF-0.00939928928837008
aF-0.00435149094563028
aF-0.00839327127065806
aF0.00011066844877282572
aF-0.013648771186217207
aF0.0018986422723059173
aF0.0
aF0.005782410168553376
aF-0.004993636680167575
aF-0.00417410121433122
aF0.0
aF-0.0039292748892251
aF-0.022670076810898044
aF-0.008701085840398266
aF-0.004389047132505538
aF-0.001991221148546651
aF0.0
aF-0.00448402718188596
aF-0.004780514008411248
aF0.0
aF0.0
aF-0.004624678258320903
aF-0.008912729803546297
aF0.0004741243334389581
aF-0.004572620195532103
aF0.0
aF-0.004894934488904815
aF0.0013316878196094287
aF-0.004692986334237592
aF0.0
aF-0.0049216977939400015
aF-0.003398397757294711
aF0.002763278102724285
aF-0.0044319927418879955
aF-0.017008120549266766
aF-0.07259550606814293
aF-0.0101521035171675
aF-0.1282082361072715
aF-0.09783290864578001
aF-0.007737422860101001
aF-0.07867218253569794
aF-0.007397749428104849
aF-0.005005873418581367
aF0.010757250459058808
aF-0.009004381392769874
aF-0.06062619343346554
aF0.001239894793405221
aF0.0018381631159231342
aF-0.0035011678909032482
aF0.027118090155005194
aF0.007281115757526583
aF-0.011557768688216927
aF-0.11332350093423499
aF0.002000069724983157
aF-0.004403942254956107
aF-0.004751774783032493
aF0.0003707438223677405
aF-0.008855932102168406
aF-0.008313245521728903
aF-0.034309315508345005
aF-0.009997693990554102
aF-0.004343886504220608
aF-0.003788888563327702
aF-0.026525988388467977
aF0.0009273880847201093
aF-0.02305958889186714
aF0.01274854994010296
aF0.004234563434134151
aF0.0
aF0.001228744690453933
aF-0.0038000175727021177
aF-0.002957926224359704
aF0.002670828928966374
aF0.00663935903520845
aF0.0015534214690106872
aF0.005795263750107807
aF-0.0008917278342180021
aF-0.004748036428489234
aF0.021365607551403057
aF-0.021986467695392895
aF0.018055151518035856
aF0.0008253254971185694
aF-0.0012589747273113903
aF-0.13636747251519518
aF0.006317925863873073
aF-0.004407561566555875
aF-0.004429295381275484
aF0.00010603806991684762
aF0.031014849902346847
aF-0.021174552133816096
aF0.005361121821884005
aF0.0
aF-0.008953091437636902
aF0.0
aF-0.002909940043602311
aF-0.00029165291211817807
aF-0.004571635581028246
aF-0.004751774783032493
aF-0.04564226254053241
aF0.0015853062405979989
aF-0.0203612992672877
aF-0.011387987945251346
aF-0.023478236290364496
aF-0.05372224629275045
aF-0.05448887473988398
aF-0.004856552858051674
aF-0.007690547186089222
aF-0.0039292748892251
aF-0.0049290314343237935
aF-0.00393220872419671
aF-0.0031293217689555954
aF0.0
aF-0.0049463724545513186
aF-0.004860249519010738
aF0.0
aF-0.006191124965238876
aF-0.035656358894460886
aF0.0
aF-0.021128638452857174
aF-0.007841797515213996
aF0.009750987595762975
aF-0.004884902397286349
aF-0.014438719610160543
aF-0.018181925180372066
aF-0.003516300721469007
aF0.020071882228216757
aF-0.009332740694119056
aF-0.0090266195236463
aF-0.01345520256954088
aF-0.004351424119359218
aF-0.05918029813216463
aF-0.00023015908452924812
aF-0.0037869145781774813
aF-0.004994791749820492
aF-0.003536382721815524
aF-0.0005174594660963959
aF-0.005719288901987677
aF-0.004836275538969973
aF-0.007058877578275135
aF-0.01190788604689904
aF-0.004585760207561767
aF-0.04333299015889789
aF-0.009287871448987732
aF0.0047981589704037585
aF-0.004358950556283753
aF-0.004280871037557823
aF-0.0016203741252985102
aF-0.0004150145184987237
aF-0.003142502947671208
aF-0.002481099251776908
aF-0.0012954418925883722
aF-0.0013975423036725549
aF-0.004737289777359614
aF-0.0006263919704129169
aF-0.0013430430113751512
aF-0.006340754574701488
aF-0.0008105160879559244
aF-0.0032350308017522825
aF-0.0032350308017522825
aF-0.008334425063454836
aF0.0
aF-0.00968376581185842
aF-0.005945375581118333
aF-7.390885677668424e-05
aF-0.0007091790271181567
aF0.0
aF-0.002356840122991295
aF-0.0022174053872011084
aF-0.004938720207958366
aF-0.007349084750837311
aF-0.002714496069481599
aF0.006469635022324183
aF-0.040298299351220326
aF-0.10949425202946787
aF-0.23639661884970786
aF-0.005013496449417116
aF-0.0025824539491485815
aF-0.01561089516266257
aF-0.014532056276488244
aF-0.001592791009594685
aF-0.007194462739926088
aF-0.08632888473289728
aF-0.005674812955490034
aF-0.01608958807822845
aF-0.018623419423084122
aF-0.030876457770212577
aF-0.24305143192187986
aF-0.009218097157118351
aF-0.024487967827551034
aF-0.0018992287278355503
aF-0.0031495501095736983
aF-0.01449350539350075
aF-0.009225639123983533
aF-0.0019251569356670798
aF-0.03192114621869003
aF-0.03458848026712093
aF-0.1593599111104204
aF-0.019331692340092427
aF-0.0010978944219725765
aF-0.024926722441671868
aF0.0011327524411303535
aF-0.01832903552248375
aF-0.12891308297840404
aF-0.005337451360236603
aF-0.008321752115600139
aF-0.0060980729563678525
aF0.0011630055936362894
aF-0.0009029215581924576
aF-0.004888448969111187
aF-0.008336705419468852
aF-0.0040395557826439065
aF-0.008449599033356176
aF-0.04816918440702548
aF-0.004993869741014352
aF-0.002679873556208913
aF-0.0013823450815491276
aF-0.0038921855488594495
aF-0.001269134154598467
aF0.0
aF-0.011139320091514965
aF-0.011071737329952674
aF0.04843325142534085
aF-0.024527593947842843
aF-0.004636180771759448
aF-0.002345455027947722
aF0.00646184663292082
aF-0.010461992996676248
aF-0.0005824565651784114
aF-0.0007556689547770477
aF-0.00050840490252412
aF-0.004208236328373001
aF-0.0011514384662177047
aF-0.003941243806052886
aF-0.0009066325012931751
aF-0.0037622118185578596
aF-8.355076088143563e-05
aF-0.0032825312920480663
aF-0.004366974359088024
aF-0.0018727501988455514
aF-7.390885677668424e-05
aF-0.0011678590454412626
aF-0.03141839507457065
aF-0.002219508471196236
aF-0.0003335279664634764
aF0.0
aF-0.015244649060489453
aF-0.011721393852095313
aF-0.012137423956521036
aF-0.010511395015748864
aF0.0005539012823536716
aF-0.03612086576265641
aF-0.004764138131919866
aF-0.0077768719055280565
aF-0.008633411096736255
aF-0.0017914387242503299
aF-0.00486577186178114
aF-0.003394622428189961
aF0.0
aF-0.024761274597744173
aF-0.031976171820613436
aF-0.0031493816325557588
aF-0.01440178027200824
aF-0.0018727501988455514
aF-0.0036880487590790494
aF-0.00034255280328407775
aF-0.006925426462542209
aF0.00337565256775861
aF-0.010045403639649612
aF-0.017640000191014776
aF-0.0019116919569114547
aF-0.011857924931266133
aF0.0
aF-0.000461991481535054
aF-0.007267256947939315
aF-0.003768962918055521
aF-0.0764526455138169
aF-0.03928770644172259
aF-0.0049180586348009595
aF-0.007890706774562635
aF0.006238691219628367
aF0.0
aF-0.004357128677000322
aF-0.01270820176261061
aF-0.0030427998222186383
aF-0.003096779225346232
aF-0.0050982201164464355
aF-0.0014809730401150847
aF-0.0012779813203086263
aF-0.003539585387206593
aF-0.0010072470595546468
aF0.0
aF-0.00021091594284937883
aF0.0
aF-0.003969608231778609
aF0.0
aF0.0
aF-0.004899463386557027
aF-0.008164301580253469
aF-0.01610841731621205
aF-0.005448181729708794
aF-0.0014585358362850045
aF-0.003176536116364091
aF-0.0005655546548564368
aF-0.0018904009684867968
aF-0.022279888249501088
aF-0.004517344410477119
aF-0.0010346890716671107
aF-0.0017824504183361518
aF-0.006636658665620121
aF0.0
aF-0.003089404144673125
aF-0.0018727501988455514
aF0.005517940676290354
aF-0.004453757525037221
aF0.0
aF-0.0003608506785902519
aF-0.005180704041802949
aF-0.017972655171306872
aF-0.0044976823027347125
aF0.0
aF-0.0008667582706280442
aF-0.004539207192849977
aF-0.015869944268316984
aF-0.0035504476845330036
aF-0.00124765069562208
aF0.00026156921369601804
aF-0.0003212460657658582
aF-0.008985202731124853
aF-0.008070320043121257
aF-0.0020264181742146855
aF0.0
aF-0.00958511930058939
aF-0.004942112705034188
aF-0.00992087680662132
aF-0.009041993601374275
aF-0.0063517446344881255
aF-0.0056179599163860205
aF-0.0014169696252903244
aF-0.013571671756883376
aF-0.004130061818653398
aF-0.044628456992132484
aF-0.004756918795807977
aF-0.004764920718911303
aF-0.0019801725344111938
aF0.005043675031064549
aF0.0
aF-0.00015991370327832061
aF-0.013580301073929631
aF-0.02758437684905537
aF-0.016751781912854136
aF0.00844604036855785
aF-0.001106948357463042
aF-0.03694590877262474
aF0.004548450764740063
aF-0.0012455054670447295
aF-0.004053901239090757
aF-0.004189001508109757
aF0.0
aF-0.01477646173997792
aF-0.001186542032925609
aF-0.004619017557283318
aF0.00025559861146064405
aF0.0005336511637894495
aF-7.390885677668424e-05
aF-0.0016840317676678571
aF-0.011642612327243895
aF-0.005662430658397239
aF-0.0023250531959553835
aF-0.003328054130562417
aF0.003312285668127298
aF-0.012388319446433399
aF-0.00480321383954889
aF-0.00883294792617633
aF0.0032520975955616397
aF-0.01646451010245491
aF-0.000577257711622325
aF-0.004857359276221014
aF-0.0008130400331132986
aF-0.01340983436074233
aF-0.020866763508700748
aF0.0
aF-0.015515308755159508
aF-0.012948985244843067
aF-0.0026018394354314547
aF-0.0007894802084356439
aF-0.017562747741287608
aF-0.003445516445116854
aF-0.01807909057863115
aF-0.008452019302484572
aF-0.0025779842755988846
aF-0.0013325845754520642
aF0.015936604717177016
aF-0.017163829170278873
aF-0.00798506990691593
aF0.00840436183233708
aF-0.020629061154678736
aF-0.025692717672663318
aF-0.00016913235664052026
aF-0.006042436335751277
aF-0.0286383671976439
aF-0.004790935769196917
aF-0.0014989374450810778
aF-0.0004476951471792062
aF-0.006323848120697798
aF-0.004494847997496818
aF-0.0012803110835519738
aF-0.009206459849227609
aF-0.05324161086290741
aF-0.0034550876742320677
aF-0.0030362617848966583
aF0.00866597853068968
aF-0.005846376713085189
aF-0.012385787252998128
aF-0.013260053783764854
aF-0.024838595305078266
aF-0.023685088538687088
aF-0.07434124375885762
aF-0.06744669920350109
aF-0.013306528330475804
aF-0.0012946569530450302
aF-0.0010725926450067104
aF0.0063707109818840445
aF-0.005221074436064186
aF-0.0018583772197150762
aF-0.006156482556249868
aF-0.008437467241839513
aF-0.018421752007476352
aF-0.019802538252654312
aF-0.022379293962519562
aF-0.0036390143620452647
aF0.01190081792628064
aF0.03353618875608266
aF0.012673231895372011
aF-0.052511756036689214
aF-0.002157710249429979
aF-0.001791618101566367
aF0.0
aF-0.0012534666053361627
aF-0.0015017444164237635
aF-0.0009559298142864385
aF-0.012853347874060828
aF-0.029899998664078692
aF-0.10250452385155008
aF-0.14419005467320234
aF-0.12461132194317533
aF-0.23268017227785115
aF-0.3907993642293899
aF-0.300163910864212
aF0.012355733396081576
aF0.05557219071261238
aF-0.026958896547606852
aF-0.05796442480825418
aF-0.11965361110532918
aF-0.2104559498783652
aF-0.3697275542391939
aF-0.37604589618150813
aF-0.048344653682236435
aF-0.027724516146581116
aF-0.3005938397381638
aF-0.008300420643148567
aF-0.01560494409357901
aF0.0043372301005981185
aF-0.01994614773631456
aF0.00523579039987235
aF-0.02011186002333788
aF-0.006891852028747081
aF-0.012767672464896112
aF-0.0002174424061584238
aF-0.005279029480751093
aF-0.010588931046486368
aF-0.008125915894152376
aF0.005545612026525587
aF-0.0012415934492961173
aF-0.0009426053900686505
aF-0.009033041692027026
aF-0.48982305146292865
aF-0.049532340647357696
aF-0.03234324873786153
aF-0.005349500320963753
aF-0.0008483893564458921
aF-0.003258352507026102
aF-0.022202948163068847
aF0.02430033541030034
aF0.0005477613958162403
aF-0.00783821668119087
aF-0.34074237674700975
aF-0.08461863747198808
aF-0.1261393413408433
aF-0.439371687519792
aF-0.08633017515028285
aF-0.04352408029900927
aF0.03327066997335153
aF-0.001320873722755304
aF0.0091877256390351
aF-0.43484207799159724
aF-0.0011635318584235122
aF-0.004901415381619938
aF-0.0033874946304653973
aF-0.010432847334297118
aF-0.028508719421984338
aF-0.03944812163534918
aF-0.07388795742853257
aF-0.06670441149500583
aF-0.011393764654054216
aF-0.05752111886496513
aF-0.01087349311499649
aF0.00025994517085987695
aF0.0
aF0.0036314427562953713
aF-0.06835317126108419
aF0.00010951992755595021
aF0.00019486922625340834
aF-0.003208626055984042
aF-0.00263351335352504
aF-0.0005836496992121066
aF-0.011936306574205151
aF-0.021443503996641296
aF0.001103828778326581
aF-0.007244959398325234
aF-0.0571557119374692
aF-0.01373532254257413
aF-0.0005062921916502482
aF-0.9406334110721828
aF-0.0005584330625364568
aF-0.00014420857812739844
aF-0.0030277891642514388
aF-0.0016964295328527133
aF-0.39488897445734655
aF-0.17367199646187156
aF-0.0007363733187524357
aF-0.00043701217487274565
aF0.0077059670164369
aF-0.04574972482386805
aF-0.17983490224768198
aF-0.060487619897064616
aF-0.007197540197818882
aF0.012316066214489964
aF-0.0006265301945287639
aF0.0038727517281397067
aF-0.0006790702118524719
aF0.0027235478922260155
aF0.0046621522207026716
aF-0.0004942452525351624
aF-0.02700840866542543
aF-0.005452790568925944
aF-0.13210158818346707
aF-0.013325764133836276
aF0.0
aF-0.010518859743727897
aF-0.0005305808222726067
aF-0.007235430309100683
aF-0.02792759189471517
aF-0.004646582933962903
aF-0.017636639745091998
aF-0.0019342067489620093
aF0.02181336248532987
aF0.0
aF-0.07780503410718577
aF-0.06352165415631382
aF-0.0020085670467070438
aF-0.052246444957040866
aF-0.059193257840237684
aF-0.0020269682675090944
aF0.004055459433449169
aF-0.002130142464796302
aF-0.0011642236457182122
aF-0.43902213395348616
aF-0.0194446792470393
aF-0.00033695544945834815
aF0.007872880393077925
aF-0.015351181502084352
aF-0.24235938207430383
aF-0.01570884823840546
aF-0.004606731841115953
aF-0.002588920641848791
aF-0.14907609691769658
aF-0.00303618834059896
aF0.07251159175565489
aF0.005551449366332792
aF-0.29889515212758255
aF-0.008208800124159775
aF-0.3596719144662424
aF-0.0042653973237146625
aF-0.12105036476431452
aF-0.02809866867507436
aF-0.008978646634862216
aF-0.014800846572039818
aF-0.05435539526098269
aF-0.004520661303306521
aF-0.004486971362577205
aF-0.17147512297994652
aF0.0
aF-0.2679503708054422
aF-0.009266555817066768
aF-0.049113855227349484
aF-0.004999550346569539
aF-0.00794537660616618
aF-0.020529429052919386
aF0.00507993792168542
aF-0.009165383966666987
aF0.0014718058406038284
aF0.00631451624354096
aF-0.03864380758549553
aF-0.004643671238938221
aF-0.08582100554575746
aF-0.0613543859468113
aF-0.0038955662279575266
aF-0.020986291235305942
aF-0.0570537194874062
aF-0.010255658379489779
aF-0.04877123502511138
aF-0.1481645918630698
aF-0.004368637464411104
aF-0.08536482820248041
aF0.007509361396797778
aF0.0022021598725139196
aF-0.004415224836356431
aF-0.005359242024943375
aF0.00547899176180086
aF-0.003218193592361421
aF-0.016441139078465464
aF-0.0047495717349960165
aF-0.03556544028863659
aF-0.001611053181628729
aF-0.003806707251587737
aF-0.005592916754643602
aF-0.00018620377802119556
aF-0.01162334737425835
aF-0.003668922075125783
aF0.06308700792149283
aF-0.19960077119828296
aF-0.009799961658079056
aF-0.03299816702262042
aF-0.16557917117604734
aF-0.004620393831710884
aF-0.013638266339012172
aF-0.07691001449825315
aF-0.014631771873307001
aF-0.018060810175550047
aF-0.27449051606991165
aF-0.011822268535550068
aF-0.1888296731651977
aF-0.015285489715561314
aF-0.010166658036599972
aF0.2475005638448927
aF0.2651016721237029
aF0.1677098683394028
aF-0.028740428181681616
aF-0.0056428715534812615
aF0.004731597673290598
aF0.0
aF-0.026660975380158578
aF0.012854436739995794
aF-0.023563721965202723
aF-0.008044271640093616
aF0.0013906102547100608
aF-0.038828432186270884
aF-0.05669299873606487
aF-0.038041051385015054
aF0.02683514380803367
aF0.002211592960816064
aF-0.10260766177050915
aF-0.0022827700688530708
aF0.0021400075510961862
aF-0.052252570759325975
aF0.013363132991508323
aF0.00895964452518172
aF-0.0021000083188949695
aF-0.06557475933759951
aF-0.039958308523833065
aF-0.011050460383949282
aF-0.00782693130518578
aF-0.08606119098919955
aF-0.08701563703061123
aF-0.004352493558329659
aF-0.01597638797408551
aF-0.009605613270596529
aF-0.021530737922918545
aF0.0022033745754958265
aF-0.004431673569339829
aF-0.010681833592208737
aF-0.15900921463943152
aF-0.004385951844090444
aF-0.024514138275999804
aF-0.29784907064004174
aF0.002117207193788176
aF0.00043163711218504154
aF-0.0312888421824264
aF-0.01113368233077489
aF-0.002391494408051603
aF-0.00383232205529859
aF0.004941624920771992
aF-0.013754608999165256
aF-0.03624968756381516
aF-0.0043649710484166835
aF0.0076803542253664064
aF0.005033477234710181
aF0.0
aF0.006315447463428849
aF-0.04273520583409217
aF-0.011240518231573255
aF-0.0045833688049086285
aF0.005625452596601972
aF-0.02099714120703748
aF-0.003354174678070718
aF-0.023202407152171596
aF0.005993336756841212
aF-0.003416569788574476
aF-0.016625697585725626
aF-0.006039119629802128
aF0.0050413549303514596
aF-0.003971627871961952
aF0.0049176499683607836
aF0.0
aF-0.003527819671007311
aF0.005365878938953204
aF0.14116622771751064
aF0.006990142000287755
aF-0.10344320874312488
aF-0.0654294210297501
aF-0.004961218799408544
aF-0.003540685647700881
aF-0.027311168717032572
aF-0.007285998546958333
aF-0.0855156981730389
aF-0.20144373556713357
aF-0.09626548458175677
aF-0.10996503444443792
aF-0.11841915323233271
aF0.0
aF-0.11897502865022418
aF-0.03312696621790319
aF-0.012974846467531564
aF-0.023568374458949777
aF-0.025129176229686592
aF-0.004782851922294726
aF-0.002947790301419595
aF-0.004941105634041655
aF-0.003977170879565302
aF-0.01186676741117358
aF-0.008641560441244627
aF-0.025478861416762345
aF-0.004826443072002192
aF-0.001964480061993178
aF-0.07842980482299546
aF-0.007748743661869104
aF-0.004285449565386717
aF6.263105157293633e-05
aF-0.025379580735744818
aF0.005047443158438485
aF-0.003773183906144893
aF-0.0038240401086954106
aF0.0
aF-0.00785374949513445
aF-0.011463623079317111
aF-0.004164741684275559
aF0.005677935547477988
aF-0.12330742384081705
aF-0.04310846527236289
aF-0.00687929950381996
aF-0.012730231940340548
aF-0.004713551968629695
aF-0.10010862009940527
aF-0.004874721186349691
aF-0.004483152090402633
aF-0.044921374775506666
aF-0.019175733358744493
aF-0.005000046216832592
aF0.0068765891208683915
aF-0.0007675253043333566
aF-0.03694619994141986
aF-0.015432583818053602
aF-0.01851409342099265
aF-0.00039610007186283104
aF-0.01432601752124297
aF-0.10052693065183325
aF0.014351867096824022
aF-0.003512863254363965
aF-0.015242910970350887
aF0.10197927176137771
aF0.008599297988092
aF-0.006141666668760159
aF-0.011695151022621173
aF0.0059468828433609225
aF-0.004963160861563086
aF-0.010862935735497296
aF0.00030478011908394425
aF0.01048897520386434
aF-0.0027093970818070625
aF-0.027482158098668986
aF-0.03339280733269941
aF-0.003544964093979768
aF0.005114565562365003
aF-0.0009419652225283842
aF0.01363863473362453
aF-0.024794137657107168
aF-0.004029445374997729
aF-0.007270258742307886
aF0.007241129095584224
aF-0.0025698813916543678
aF0.005024924892297005
aF-0.008581609680708388
aF0.0
aF-0.00830270483129631
aF0.0
aF-0.004039230111253681
aF0.0065663341471523355
aF-0.0030185958703206617
aF-0.0032607375289945037
aF-0.0640630056168912
aF-0.023881630504094045
aF-0.0401076729477068
aF0.004955333368084146
aF-0.06410888957465509
aF-0.0037797529816020344
aF-0.039622010399090704
aF-0.024916830663581108
aF-0.00556247159091865
aF-0.004988889496225206
aF0.013279974439381177
aF-0.04484138480854307
aF-0.11878356627222247
aF-0.09375329065448296
aF-0.06430796297845578
aF-0.0031422500321272445
aF0.04766642804779161
aF-0.10856115455822356
aF-0.017126322471225586
aF-0.017717605117763754
aF-0.022246367860975506
aF0.01043209102740874
aF-0.02060504383113201
aF-0.004739112068480898
aF-0.006790455018422421
aF0.0
aF0.0
aF-0.006897118430269734
aF-0.0039981121457296175
aF-0.0047803360143799265
aF0.00034830054529948803
aF-0.004030244553080173
aF0.005231519761498903
aF0.0
aF-0.004934063181963121
aF-0.004030244553080173
aF0.007067127793991299
aF0.004995445954090187
aF-0.003335258119176284
aF0.0004102991335801585
aF-0.004849188338924836
aF-0.20062035636239436
aF-0.02597974334596477
aF-0.055231607340960304
aF-0.03349047214366567
aF-0.0263544844941462
aF-0.002105903414957693
aF-0.009417738269639889
aF0.0018908092806196723
aF-0.012773294744283821
aF-0.007606151412644157
aF-0.01789205813004699
aF-0.0185009907583812
aF0.005778441775356191
aF0.0015307324185888024
aF-0.007709885409764939
aF-0.0044323258850516925
aF-0.019828021736743598
aF-0.010190181857960709
aF-0.30468217453684016
aF-0.02193825980262256
aF-0.22061369059804142
aF-0.010147116825580924
aF-0.33638719086860086
aF-0.012369054835174458
aF-0.004412027571357738
aF0.0006277889425845172
aF0.0
aF-0.0040974403635324905
aF-0.02979233040125432
aF0.01878581218686174
aF-0.0037647137647443267
aF-0.004940099113273377
aF-0.016006736877069185
aF-0.029261010915963257
aF0.0
aF0.01095033549217466
aF-0.00973400629755688
aF0.0010212882712999811
aF-0.0038213583752283904
aF0.00583317132541494
aF-0.004170950078854114
aF-0.008060854660185619
aF0.011546429479348995
aF-0.0023893105115946308
aF0.005605458623801909
aF-0.003958499209985613
aF-0.005
aF0.0018382642699603362
aF-0.008964168943981934
aF-0.007092863664581004
aF0.0
aF0.01140552692874939
aF-0.004615931891588601
aF0.005605458623801909
aF0.0
aF0.007766337972535365
aF-0.0033839224997894986
aF-0.003351837740602132
aF0.0
aF-0.003948928772046967
aF-0.004515766364989484
aF0.005085415926799659
aF0.0
aF0.010469393774597928
aF0.013039860300596999
aF-0.0867232915393536
aF-0.09477659842910953
aF-0.023668886223593026
aF-0.02339963422197157
aF-0.03702683395921429
aF-0.025780158537959643
aF-0.07457018663250278
aF-0.011005311616980422
aF-0.1425549728869367
aF-0.37337696679146826
aF-0.216890463415908
aF-0.014905222690616983
aF-0.042090974663722365
aF-0.00727588932672058
aF-0.003444242051185173
aF0.00027144264449715887
aF0.021608031349705695
aF-0.04552872810805698
aF0.0004917985087804153
aF-0.009654309084348951
aF0.004437084194803326
aF-0.012810774457305996
aF0.0007379434394799685
aF-0.014311865882402183
aF-0.013356264244854442
aF-0.0046762847011728725
aF-0.0009419652225283842
aF0.0025484637486927622
aF-0.04610665637058088
aF-0.021891539609163523
aF-0.023261378149022766
aF-0.004289587761125374
aF-0.004631708663894926
aF-0.04643631338717186
aF-0.00411589960732182
aF0.0
aF0.0
aF0.006146509428817519
aF-0.0071627144175725205
aF-0.208870359258568
aF-0.0777543887158634
aF-0.13395260479085458
aF-0.07274305056936597
aF-0.054786795361476695
aF-0.04369087008497251
aF-0.03984246714771259
aF-0.06333270419445787
aF-0.0859032300728731
aF-0.004647559338848077
aF-0.11305894263700442
aF-0.009155443473016297
aF-0.04251310868322254
aF-0.01749641025573445
aF-0.003955137165339997
aF-0.20363617643219856
aF-0.00264983075262871
aF-0.2001848142302319
aF-0.03980923984516486
aF-0.0180776978251068
aF-0.0153265425809951
aF-0.01593497218612455
aF-0.021452834572230097
aF-0.004849188338924836
aF-0.011507773508471219
aF-0.018350867237245373
aF-0.014541221797117483
aF-0.07467846832793637
aF-0.015031773455446259
aF-0.029355290382853828
aF-0.029883002068847
aF0.0
aF-0.003456780385346709
aF-0.12451213068069075
aF-0.010655391083880857
aF-0.011470044944303794
aF-0.03403571177343947
aF-0.010996505631322578
aF0.005602828583667306
aF-0.027935088083131686
aF-0.027364417759411078
aF-0.004207151766872613
aF-0.01391790439484988
aF-0.002406140835401026
aF-0.004433943778292016
aF0.0049536226361926415
aF-0.0024941661354852375
aF0.01984901531040201
aF-0.02802280698740619
aF-0.0029257470313892443
aF-0.02032592058905265
aF0.008138393059740595
aF-0.012266868224740698
aF-0.01024824295806068
aF-0.00839071390411172
aF-0.010149950139939332
aF0.0
aF-0.0028524844892612957
aF-0.004554002708800135
aF-0.00428024369836063
aF-0.004291205271951815
aF-0.015346066680699967
aF0.005903861896947971
aF-0.0023348361700094473
aF-0.008989937607298513
aF-0.0063386320392791375
aF-0.0016239942574659406
aF-0.016716398190101903
aF-0.004068905920307055
aF-0.0210949523056081
aF-0.016968935686940866
aF-0.015639235055767045
aF0.0023579159478466366
aF-0.004482833213998211
aF-0.010992970282870338
aF-0.055624963726296786
aF-0.08947629527143325
aF-0.02135511913898665
aF-0.03623341144233265
aF0.009854331773859222
aF-0.014855222070186587
aF-0.038744207736302716
aF0.006029440849081329
aF-0.0172031212188761
aF0.0016791693280941399
aF-0.0029257470313892443
aF-0.004433943778292016
aF0.0
aF-0.008617858672339846
aF-0.019067105272291426
aF0.0
aF-0.00461238691457184
aF-0.008450460576472928
aF-0.004429004601743727
aF-0.004429004601743727
aF-0.0027673449176957433
aF0.0043909973322342165
aF0.0
aF-0.004224493433605238
aF-0.004224493433605238
aF-0.03091784411452781
aF-0.01902724995854254
aF-0.015798868534826337
aF-0.006551553207497245
aF-0.00428024369836063
aF-0.0025760355682772984
aF-0.008846504989540108
aF-0.004747666028357463
aF-0.0047803360143799265
aF-0.0041543088662709575
aF-0.003786825228708857
aF-0.006849488854009742
aF-0.012602714271921894
aF-0.017756362301056376
aF-0.021260718905239766
aF-0.004952371928880095
aF-0.014604162169796873
aF-0.01551166774398436
aF0.0
aF0.0
aF0.002824269427419016
aF0.0075792545445105275
aF2.124340414702986e-05
aF-0.03317340786472331
aF-0.003955354957640458
aF-0.006607623001544788
aF-0.0001758974602419647
aF-0.04494995915743072
aF-0.004954173723234741
aF-0.004091165359957075
aF-0.00411589960732182
aF-0.0007874994535072713
aF-0.06559299359837403
aF-0.015221188826899169
aF-0.039983426467862904
aF-0.0052827823572544836
aF-0.012655794311876543
aF0.005148258644214476
aF0.007294694713287354
aF0.00634946994245457
aF-0.005339331394540738
aF-0.016639074244673133
aF-0.004716294896558106
aF-0.010794258462580508
aF-0.0032797503846275266
aF-0.04047220696109996
aF-0.01126802914413098
aF-0.07834699200563135
aF-0.014469767408634412
aF-0.05191767574923259
aF-0.0031693261883647458
aF-0.021858949848598107
aF-0.030732919570930984
aF-0.009112195074930978
aF-0.03926249016223164
aF-0.020757189621910328
aF-0.03726007329430308
aF-0.003389721595408998
aF-0.015310577904720308
aF-0.011135489459955916
aF-0.022329050158302752
aF-0.0046535730787356094
aF-0.0564091891494215
aF-0.06020277617890335
aF-0.02390135285968191
aF-0.013783155761301978
aF-0.0017608558235242145
aF-0.014800242189805999
aF-0.010157497977187874
aF-0.008597438142704382
aF-0.004768182464965848
aF-0.09394323863707423
aF-0.018633300903524337
aF-0.043620761915884744
aF-0.013168295827368186
aF-0.039209369916223036
aF-0.013028305723544365
aF-0.017135973951469832
aF-0.07917281807704858
aF-0.007720876676120834
aF-0.028074269710120076
aF-0.01735607422780185
aF-0.04704991700167265
aF0.004147019106380609
aF-0.0019707165899060445
aF0.0
aF-0.008957997603558688
aF-0.016829310685365147
aF-0.01507824683702344
aF-0.005283496506978802
aF-0.05531335255917244
aF-0.0013872757175058556
aF-0.0033204120961723826
aF-0.010592101223360881
aF-0.002958476391687267
aF-0.007049736928936232
aF0.0
aF-0.003489289318052787
aF-0.0016347473754463
aF-0.0048550028557423665
aF-0.03279921679738156
aF-0.02589544311730548
aF-0.013969336284996262
aF-0.004611027708221918
aF0.0
aF0.0
aF0.002667969802205773
aF0.0021456625480972954
aF-0.0038721916811675816
aF-0.003903729894947382
aF-0.0024013592672852153
aF-0.0036122119227932838
aF-0.0031908589458334684
aF0.0
aF-0.008862888007505093
aF-0.012810379690340417
aF-0.017796438517277167
aF-0.005050567508235019
aF-0.0009419652225283842
aF-0.022217293231037865
aF0.0008157088070598678
aF-0.008229801405257975
aF-0.021206926509401387
aF-0.003947684573548611
aF-0.008083914601262374
aF-0.004959445314695839
aF-0.004292655144303555
aF-0.004249624409221694
aF-0.004951853290294118
aF-0.038398147178115544
aF-0.0038701597230778617
aF-0.0034729008113654875
aF-0.0036347365393346463
aF-0.003124455281034513
aF-0.006410752691339309
aF-0.0016300034214156867
aF-0.004530236301678855
aF-0.004758975238005518
aF-0.008427704576880708
aF-0.009535296964476721
aF-0.007951937636448587
aF-0.0039032031282308635
aF-0.015508216315472001
aF-0.004962789675545761
aF-0.00923211326845588
aF-0.003371693875654415
aF-0.04535752102058129
aF-0.014853733201195358
aF-0.0027564367501740866
aF-0.004263127500015087
aF-0.008218612621137981
aF-0.007648271897361363
aF-0.07246304965498643
aF0.0
aF0.005049698755815048
aF-0.08751191859429555
aF-0.02091284258951562
aF0.005299769464381051
aF-0.01478620786712002
aF-0.029040898836458356
aF0.007198374361423924
aF-0.007942571543563648
aF0.0
aF0.005809066049801582
aF-0.004296646111947348
aF0.0
aF-0.006213017371717547
aF-0.0051739624144909405
aF-0.01836498178933777
aF-0.004647984947793186
aF0.013338878671832664
aF-0.0029689384633498207
aF-0.004762641767912659
aF0.0
aF-0.03665400059524399
aF-0.10882398836736058
aF-0.06353881261409207
aF-0.0031422500321272445
aF0.04815138570205745
aF-0.1113503870608166
aF-0.0045813565597159055
aF-0.004445849302739494
aF0.005806524640881447
aF-0.05205124979108181
aF-0.09401829375558761
aF-0.13075451271594188
aF0.0
aF0.09998710445231763
aF-0.14031029111812965
aF-0.004877268544530948
aF-0.003562940489792415
aF0.0
aF-0.0049285936819245665
aF0.005379975442813407
aF0.005
aF-0.10756430043528781
aF-0.23512783125796663
aF-0.11547627195029256
aF0.08548047917422005
aF-0.14688520029807203
aF-0.009325071481144313
aF0.0
aF-0.0047681772551269545
aF0.005
aF-0.009275664763223298
aF-0.01690499905025385
aF0.005569723027101446
aF-0.009242027462282011
aF-0.03844573473630933
aF-0.04978996892885088
aF-0.08344414890218378
aF-0.0033715009681767483
aF0.05160382146129959
aF-0.08004785870085229
aF0.005452164118586266
aF-0.004275261948842395
aF-0.004030244553080173
aF-0.0049731643256009875
aF-0.021448712807236613
aF-0.00404801355830437
aF-0.0037009609894153705
aF0.01348310332890578
aF-0.011698934775755211
aF-0.33229617166722686
aF-0.04490988439461337
aF-0.04155752244975787
aF-0.04351301366421525
aF-0.1315210340825808
aF-0.02246264577902527
aF0.0
aF0.00688892757768448
aF0.0
aF0.0
aF0.0
aF-0.004859290958207029
aF-0.012699154166799504
aF0.0
aF-0.39516113947516024
aF-0.005432697178229594
aF-0.0041010101601920606
aF-0.015378177396562342
aF-0.030191471711290073
aF-0.037853916089510345
aF-0.044547773186109446
aF-0.022715284437075975
aF-0.004354091215821624
aF0.0
aF-0.021792273994982937
aF-0.004972300896173942
aF-0.008510342365436099
aF-0.03344236627087196
aF-0.011752444648844838
aF-0.009143955353065468
aF-0.008373438724226943
aF0.005197904486781402
aF-0.0047957226244883
aF-0.006946153207065843
aF-0.010575673755666011
aF0.006315447463428849
aF-0.004025617759248383
aF-0.004987362790469178
aF-0.003879793803075936
aF-0.004769387983278559
aF0.00035754981888273894
aF-0.008301672620682156
aF-0.003125400465614183
aF-0.004877216359684997
aF-0.00383232205529859
aF-0.004985362503526758
aF-0.047514511823705856
aF-0.004511356298858271
aF-0.0027601697551443444
aF-0.008163890111092894
aF-0.020711427753625607
aF-0.04158550108021952
aF-0.047908478863896965
aF-0.01656363145631047
aF-0.18885135269975487
aF-0.017293415241067988
aF0.0
aF-0.013933372051026151
aF-0.0030527501693576402
aF0.004100091453489837
aF-0.052979250342135596
aF0.001239656416878533
aF-0.14503510930374494
aF-0.05245835630813939
aF-0.07491145587319907
aF-0.06952458036506648
aF0.026317843006805754
aF-0.09029932839272381
aF-0.0048871598644866674
aF-0.006982296428681171
aF-0.002287930290431954
aF-0.013548006215854776
aF-0.039269763133195454
aF-0.05728893852138975
aF-0.08329660533095996
aF-0.00520973990308355
aF-0.004657014613272154
aF-0.004356535065654239
aF-0.015457930427720049
aF-0.00465313628630578
aF-0.11658745912161285
aF-0.011665563932861493
aF-0.011458192574985022
aF-0.012307066355890805
aF-0.004249624409221694
aF-0.014865049726814863
aF-0.00411589960732182
aF-0.02343426830895108
aF0.0002414118888103148
aF-0.08920367395532118
aF-0.082245859776725
aF0.0022944293277851703
aF0.005905495409984885
aF-0.004443269767989127
aF-0.01903907929886491
aF-0.03365010700024905
aF-0.014942425980863134
aF0.001279491273217932
aF-0.0012108961627626362
aF-0.046355892633186804
aF-0.007384179241121211
aF0.0
aF0.0
aF-0.05868367794285094
aF-0.003827661541286384
aF-0.004748506344376284
aF-0.011545876569427013
aF0.006026081675747892
aF-0.004893201669730418
aF-0.004748506344376284
aF-0.01647438342392976
aF-0.018777401947643577
aF-0.0030230239648570546
aF-0.006205868961167045
aF-0.00812276548013861
aF-0.009401372307551554
aF-0.3950314858478876
aF-0.02375026173619774
aF-0.03100065492453145
aF-0.007576599058153468
aF-0.004107821864628113
aF0.004955333368084146
aF-0.04301203332969833
aF-0.047717352362733376
aF-0.3379269433070142
aF-0.16790562354737426
aF-0.0762366702056582
aF-0.046775013513526
aF-0.003791192398940583
aF0.0
aF-0.012293695836983852
aF0.0
aF0.00527684720137474
aF-0.0034573402180714686
aF-0.003958499209985613
aF-0.004361080913669956
aF-0.06986976919077166
aF-0.00032677831385942435
aF0.013396665650234264
aF-0.004732494292241997
aF-0.007936767300704613
aF7.905978416953077e-05
aF-0.0503998673177599
aF0.0
aF-0.009849811885428028
aF-0.00465313628630578
aF-0.007086666158157214
aF-0.01378856150286482
aF-0.002999462610260589
aF-0.08359377216053679
aF-0.009396364891361463
aF-0.06837282823359248
aF-0.0037531169582748535
aF-0.044304600568858564
aF-0.00465313628630578
aF-0.02106520086190182
aF-0.004249624409221694
aF-0.0012696486858496214
aF-0.00383232205529859
aF-0.0041724692083128095
aF-0.00383232205529859
aF-0.003373660452972412
aF0.0046429058351290745
aF-0.023842754696529272
aF-0.008655029334144295
aF-0.027049462377752385
aF-0.00753328304471396
aF-0.01967640654072001
aF-0.007683208789863707
aF-0.005329031013220074
aF-0.0009419652225283842
aF-0.014888761524253717
aF-0.022978377112541946
aF-0.02557220769825801
aF-0.017664924141042718
aF-0.0046016948049877535
aF-0.004877216359684997
aF-0.003786825228708857
aF-0.004234419280057025
aF-0.003356301798283193
aF-0.006246914846356105
aF-0.05140507035349083
aF-0.04981979707455678
aF-0.021458569105851477
aF-0.014910284164598865
aF-0.0077289847570011505
aF-0.011779406430519935
aF-0.025849160388791564
aF-0.013535729329865236
aF-0.02836741550962455
aF-0.06390396003055074
aF-0.01609132671630771
aF-0.035431164064982756
aF-0.050434504585016054
aF-0.007400154641370756
aF-0.03392432297667591
aF-0.015616899594502742
aF-0.018934512560706537
aF-0.003934685307717961
aF-0.03753624196118503
aF-0.004952371928880095
aF-0.009114152933787124
aF-0.004978842619701519
aF0.006355282230897048
aF0.0
aF-0.0024941661354852375
aF-0.039377080112442495
aF-0.012409148479393109
aF-0.1485914165082931
aF-0.017047585641266908
aF-0.018038760439931942
aF-0.007081261726804962
aF-0.006321338899468976
aF-0.004153191226530964
aF0.0
aF-0.004392990852136194
aF-0.004093190969387048
aF-0.00477445723511069
aF-0.0042594567264974985
aF-0.004421498650508275
aF-0.0032797503846275266
aF0.0
aF-0.004812422228743077
aF-0.004464660779169233
aF-0.008469770327906453
aF0.0
aF-0.00402607788318169
aF-0.004893201669730418
aF-0.02664283450613769
aF0.0009082984721244412
aF0.0008352440887099489
aF-0.0031293217689555954
aF-0.0039470363886069445
aF-0.008722099620989573
aF-0.0038404265294261805
aF-0.009386335954195829
aF0.0
aF-0.003925843457840316
aF-0.007380421083671382
aF0.0
aF-0.0042756612392016715
aF-0.002624995420404504
aF-0.000981408302990914
aF-0.004176096511233105
aF-0.0038140857240458238
aF-0.0046579325689386965
aF-0.00436881863972934
aF-0.00436881863972934
aF0.003037008321559679
aF-0.00402607788318169
aF-0.020445072166933795
aF-0.003697416319133758
aF-0.004361080913669956
aF-0.009006141437308941
aF0.0
aF-0.004782737248622791
aF-0.021082832723044596
aF-0.02927150889567708
aF-0.022204416639094053
aF-0.004224493433605238
aF-0.026427495993000257
aF-0.01096004425991376
aF-0.0038134917796158276
aF-0.004747666028357463
aF-0.013576989080166007
aF-0.004747666028357463
aF-0.004021473275820061
aF-0.015232629080275745
aF-0.0027564367501740866
aF-0.0052740821298935215
aF0.005199119339348908
aF-0.02331164486386556
aF-0.004021473275820061
aF-0.013814603467004019
aF0.0012518071390672184
aF-0.00876662503030586
aF-0.01663053539816803
aF0.0037277964903055464
aF-0.004475904922837766
aF-0.004780264072440274
aF-0.004832842397038879
aF-0.004127954780268581
aF-0.004919765451686426
aF-0.03651183860316935
aF-0.016741348215043354
aF-0.00441233699014831
aF0.0
aF-0.008155466469844028
aF-0.004676181453204182
aF-0.01802886948147468
aF0.0
aF-0.014126390291486199
aF0.005472344522243793
aF0.0069182845310330875
aF-0.10387426020247272
aF-0.0038331205567499905
aF-0.026838507318895796
aF-0.007828310726745778
aF-0.032731034919809505
aF-0.02914138671290851
aF-0.010598298503368776
aF-0.008565839569894994
aF0.0
aF-0.057437956662237506
aF-0.001922408590705916
aF0.0012170138807477103
aF-0.004912757013878078
aF-0.00924915267260568
aF0.0
aF-0.0023211448831165467
aF-0.04915929641240771
aF-0.014084503626844753
aF0.0
aF-0.004397254811426805
aF-0.23835946757008566
aF-0.006925747913500098
aF-0.014340288857141911
aF-0.02522241739542179
aF-0.021112571816008455
aF-0.0016901811619008298
aF0.0
aF-0.06094307236139903
aF-0.009767641157124933
aF-0.004427632793939465
aF-0.012333059050068065
aF-0.003879793803075936
aF-0.012026858960524599
aF-0.013969973631557438
aF0.0
aF-0.008487040490037453
aF-0.007378488120521257
aF-0.004814889182916638
aF-0.009339470561638696
aF-0.009739047722138513
aF-0.005002822515602066
aF-0.002938614983215285
aF-0.0696572926115479
aF-0.016132076754151983
aF-0.023646848528120972
aF-0.02883581244989501
aF-0.013942303849795314
aF0.0
aF0.0
aF-0.011613991645898172
aF-0.00581400522194124
aF-0.004249624409221694
aF-0.00379098615951982
aF-0.02057836015658545
aF-0.008504737131965867
aF-0.014031627893409813
aF-0.004967867769789033
aF-0.018236982600228928
aF-0.0037527487108708676
aF-0.00379098615951982
aF-0.004695033762936527
aF-0.0032797503846275266
aF-0.004962541368675546
aF-0.007691252526387693
aF-0.004433943778292016
aF-0.003851380533207453
aF0.0
aF-0.0009419652225283842
aF-0.007265957653747963
aF-0.00616687546471887
aF-0.0071198265717633035
aF-0.011810148999752941
aF-0.020356799328723803
aF-0.04046251653867731
aF-0.011948294505655372
aF-0.021824903141676268
aF-0.01730088208755431
aF-0.0001680929016444112
aF-0.014803712561761669
aF0.0
aF0.0
aF-0.003462850979372682
aF-0.005245625641633665
aF-0.0046685369048384525
aF0.005005645541689471
aF-0.004059220340231231
aF-0.004059220340231231
aF0.0052919727751046045
aF-0.004255791342315348
aF-0.0033333222045057245
aF-0.004793286480021427
aF0.005040073899161115
aF-0.004915215126538428
aF-0.005265037304514742
aF0.0065318814930817905
aF-0.0068089755855272605
aF-0.005265037304514742
aF-0.011029839910076234
aF-0.004934063181963121
aF0.00036090974647889906
aF-0.006855110718845406
aF-0.003791192398940583
aF0.0
aF0.0
aF-0.006943686371664375
aF-0.00796478712593747
aF0.0007732370277673244
aF0.0009937230007694099
aF-0.016489414524203064
aF-0.0036958099373063775
aF-0.0009388102251909197
aF0.0006744513263293372
aF-0.004194669886335552
aF-0.004737738680581426
aF-0.0048613645748011485
aF0.0
aF-0.0077155875043785505
aF-0.014554012474374631
aF-0.004097156739219495
aF-0.012212345292540758
aF0.005605458623801909
aF-0.017346008594783306
aF-0.023334413907803893
aF-0.009228676430068118
aF-0.009168289869085224
aF-0.008248063289492277
aF-0.0024941661354852375
aF0.0
aF-0.004921839593155342
aF-0.004807941380646842
aF-0.007445455902383522
aF0.0
aF-0.004965656748394434
aF-0.021617773981294594
aF-0.0037009609894153705
aF-0.012427765432607443
aF0.0021696325505548616
aF0.00044622363039626464
aF-0.00394752555909058
aF-0.006804364209544559
aF-0.05146385118854876
aF0.006250686542405821
aF-0.030266481852036394
aF-0.05946600170608444
aF-0.004582249180639814
aF-0.025945300363813116
aF0.007869823740337446
aF0.006271801154173981
aF-0.059298615242534866
aF-0.01787683657840798
aF0.002451207339399667
aF-0.014430013006357073
aF-0.00501775626795417
aF0.0
aF-0.0037678703237851753
aF-0.0016256743566267816
aF0.005812690806413898
aF-0.004267036803550632
aF-0.004903843686954643
aF-0.003976776183330776
aF0.005591722467626438
aF0.005591722467626438
aF-0.023817308311297018
aF-0.004623573576176142
aF-0.07873890824199974
aF-0.0031015745904279307
aF-0.004624464324019745
aF-0.003725581590936077
aF-0.02156705604606445
aF-0.029123673442433197
aF-0.03806390091774219
aF-0.03470936683411171
aF-0.059957951427819595
aF-0.1447159953575632
aF-0.02499961258392662
aF-0.00301612341099891
aF-0.005074166043257121
aF-0.0542701171115787
aF-0.003597854732783302
aF-0.026612838056952942
aF0.0005205628654252163
aF-0.05919571444686609
aF-0.022185369709736797
aF-0.017905576043298017
aF-0.018543484881870083
aF-0.0045941869073425415
aF-0.1339959480470527
aF-0.011566685008649486
aF-0.13861457952016756
aF-0.0991250298221567
aF-0.013089862080833115
aF-0.009232904013157354
aF-0.02975097881299842
aF-0.04850698745451155
aF-0.009697940662989688
aF-0.09053598288878711
aF0.0
aF-0.004311070743920829
aF-0.011919102542178232
aF-0.020668637097462104
aF-0.016687087102175036
aF-0.003945336519731342
aF-0.0024355350537529105
aF-0.03239571101009627
aF-0.03213864185264152
aF-0.030552609597468916
aF-0.008445484575485454
aF-0.004902454170674803
aF-0.01278681661861462
aF-0.004859894671365802
aF-0.004606813143701414
aF-0.004918155960697195
aF-0.004078912531551375
aF-0.0046685369048384525
aF-0.026713904944590083
aF-0.0051114982239185225
aF-0.0897208991568678
aF0.0
aF-0.02343946251593222
aF-0.020934032359250523
aF-0.004703048621706494
aF-0.004046357687096388
aF-0.008937436349959532
aF0.0
aF-0.008862418112829566
aF-0.005075490662476959
aF-0.00500126397041151
aF0.0
aF-0.0044706733696606386
aF-0.0043723692201075364
aF-0.004974285248285314
aF0.004286068419202609
aF-0.008429745293918961
aF-0.008362036588643812
aF-0.009655006069128932
aF-0.0042344375172916025
aF-0.0042344375172916025
aF0.005040073899161115
aF-0.027660283077664855
aF-0.0037699600378992976
aF-0.008438629606244485
aF-0.0049581062610961684
aF-0.0028383250255146508
aF-0.004266474291827181
aF-0.06632083973441409
aF-0.15968616425261192
aF-0.004192968307462526
aF0.004187599533727824
aF0.012803884370001191
aF-0.009129937430404788
aF0.0
aF0.005893330227238764
aF-0.00954409625416559
aF-0.001836802465007819
aF0.0
aF0.0
aF-0.005998165388902202
aF-0.003839887996855902
aF-0.002598143309930317
aF0.011005255370114923
aF-0.18872816273830195
aF0.23652482356840182
aF-0.024582506693162465
aF0.13490919521787587
aF-0.06913991130118707
aF-0.07847214192782646
aF0.0013005640222841994
aF-0.031121537734237
aF-0.007227913356316027
aF-0.06237059649791936
aF0.016005042932832406
aF-0.02157165530832964
aF0.0012339325875670923
aF-0.06257350160035953
aF0.0048554895625365765
aF-0.009837164045173943
aF-0.010291012476693687
aF-0.004691289611997939
aF0.015515456124146072
aF0.0
aF-0.003736247669372233
aF-0.003969352087949232
aF-0.04940329941141793
aF0.0016329635563213166
aF0.0058057669342827705
aF-0.009656301675055223
aF-0.01126867157371858
aF-0.008358035145419098
aF-0.010027633438575021
aF-0.012505411829835096
aF-0.0504522144068026
aF-0.04361211971460527
aF-0.0026583679944844237
aF-0.011173690723579512
aF-0.008633137118638227
aF0.02982624339793483
aF-0.050221744105118
aF-0.02024126839223142
aF-0.2104760366020732
aF-0.009245260508532041
aF-0.06246547738995297
aF0.0021719449241444106
aF-0.03437869599085141
aF-0.0047359248787348955
aF-0.010147400449589294
aF-0.016839532708939134
aF-0.0035109698990541042
aF0.002757347099316965
aF0.004704366463038032
aF0.0036630357281576
aF0.06529164496523363
aF-0.0015846013173148508
aF-0.006697381165655741
aF-0.0049510485066542025
aF0.020309900686518556
aF-0.18060838064575302
aF-0.08790085009604208
aF-1.034093285835516
aF-0.1596614506079393
aF-0.2185731104620771
aF-0.24039657337928383
aF-0.19252547766747286
aF0.0008165469442185551
aF0.00867615178639878
aF0.005081807453532689
aF-0.004133676636268284
aF-0.014124745419671934
aF-0.05823883046080344
aF0.0010426564355734752
aF-0.07085475362080283
aF-0.45298078482848614
aF-0.42117794778043516
aF-0.0009427340229878419
aF-0.2746664602585414
aF-0.04720068561839975
aF-0.05655723293297285
aF-0.01852502760798954
aF-0.013675074817311176
aF0.00277322630975668
aF-0.23577603031679234
aF-0.04765670812926549
aF-0.06346871293389987
aF0.00023279080472993641
aF-0.2795904526988864
aF-0.003332392734902278
aF0.005023386711672437
aF-0.2242689999039199
aF-0.05705362286872356
aF-0.07437268214436576
aF-0.009042461865423679
aF-0.00482007517051337
aF0.0
aF-0.05169060292412592
aF-0.11168863662435
aF-0.004745111759193051
aF0.006355282230897048
aF0.0
aF-0.007057998828157656
aF0.0
aF-0.3344011987279657
aF-0.1329950738583381
aF-0.16666382225013154
aF1.024069226994136e-05
aF-0.003807182577343615
aF0.0
aF-0.007841677887829152
aF-0.038158429476785154
aF-0.022567850288443204
aF-0.0041153655975432295
aF0.0
aF-0.03138728085377913
aF-0.004621752959626319
aF0.0
aF-0.004205728295491753
aF0.0020756414247254315
aF-0.24506289562214187
aF-0.2513631056498484
aF-0.06320897251534635
aF-0.04305103684941915
aF-0.004764075023015136
aF-0.004392990852136194
aF-0.40772975419127655
aF-0.12825443856769633
aF-0.08118013208085684
aF0.0
aF0.005114062220853959
aF-0.01602523711133435
aF-0.025777180070698368
aF-0.011126069488637095
aF0.001521695894213979
aF-0.004956761073563414
aF-0.05899202297598391
aF-0.022003683942430446
aF-0.038567387017910654
aF-0.004708854578869955
aF-0.004919012038050154
aF-0.017839770077486702
aF-0.012052179208533945
aF-0.008393987271536464
aF-0.009558628502809845
aF-0.0042807344012807756
aF-0.009845643960728423
aF0.0
aF-0.013105684087918412
aF-0.004955410038187257
aF-0.004895889718718071
aF-0.00468025076066234
aF-0.004893201669730418
aF-0.07742400225891061
aF-0.02155602987399856
aF-0.01783133448548258
aF0.0
aF-0.0035813885025388617
aF-0.004130736974529912
aF0.0
aF-0.004703197311590467
aF-0.010855266946540274
aF-0.013948275520653228
aF-0.003152679794098166
aF-0.004695033762936527
aF-0.004333715102947578
aF-0.10694059061554528
aF-0.024918208415724508
aF-0.01336369186632673
aF-0.0034859008489973747
aF0.005122298015793692
aF-0.004692917838302043
aF-0.003803209246753215
aF0.00014352829709222276
aF-0.0049901193714419825
aF-0.002648568341989482
aF-0.0030185958703206617
aF-0.006291543116525022
aF0.011286743845245547
aF-0.14439051463004918
aF-0.050549305718217405
aF-0.03638389233739293
aF-0.18579410018384038
aF-0.04020115106788515
aF-0.23249691601381872
aF-0.0703931657218506
aF-0.12836228895342794
aF-0.009153453571681961
aF-0.02252373923246901
aF-0.03642959103497636
aF-0.00463311036221282
aF-0.06716749009790247
aF0.004992352885410394
aF-0.0027141642505870063
aF-0.014372324215277356
aF-0.032240094244232874
aF-0.04958923627796883
aF-0.016536825344915455
aF-0.028751981537841607
aF0.0
aF-0.00971285301936329
aF-0.05546974297684662
aF-0.01345451078200258
aF-0.005074166043257121
aF-0.013612914030603822
aF-0.0045941869073425415
aF-0.008377697495412766
aF-0.013020482107965973
aF-0.016741331649403467
aF-0.008590520787732541
aF0.0
aF-0.04569837167854872
aF-0.004923471132799057
aF-0.004078912531551375
aF-0.004601905126506684
aF0.0
aF-0.025233180365122967
aF0.0
aF-0.008930248674191473
aF-0.004918155960697195
aF-0.004383387606822573
aF0.005033897115403378
aF-0.009174554745838472
aF0.0
aF0.0
aF0.0
aF0.0049837115786398115
aF-0.00500126397041151
aF-0.08059212832416447
aF-0.0038162812062190786
aF-0.02575265413397285
aF0.0038887548203557164
aF-0.041770744766817317
aF-0.006732034365549682
aF-0.004986206312091729
aF-0.0044425843731480405
aF-0.0038134917796158276
aF-0.0046893366880133855
aF-0.005483564433232059
aF-0.004229502230494345
aF0.00730616192108039
aF0.0018322236668743908
aF-0.004697584966194388
aF-0.03344897045919503
aF-0.2268354456339547
aF-0.27907499701831456
aF-0.022881674213785997
aF-0.05867498695053511
aF-8.449908611108444e-05
aF-0.2935308372634666
aF-0.3661156468817689
aF-0.022334957024126648
aF-0.1698866538682399
aF0.019990289676096624
aF-0.004693749075053499
aF0.002475830891148987
aF-0.01523510412244826
aF-0.10756895912090336
aF0.0006580185486208083
aF-0.20263878317720838
aF-0.11012412332046004
aF0.0014193532826795004
aF-0.007495027505970331
aF-0.21489475654112997
aF-0.14130870064168644
aF-0.046215157152967826
aF-0.12450129536256106
aF-0.009984002981553731
aF-0.004875790155971444
aF-0.005058461136852128
aF-0.016361781309237898
aF0.009502672195513241
aF-0.03413326754948295
aF0.005346783758069331
aF-0.0064893624190669455
aF-0.06753640372056659
aF0.0
aF0.0001538216629265116
aF-0.008541867745392479
aF-0.00709052691815735
aF-0.014035777417126482
aF-0.19343487904970957
aF-0.00943869292986085
aF-0.02524021460722966
aF-0.012086447518275862
aF-0.00799031536288499
aF-0.10193986846903556
aF-0.05221591319936028
aF-0.10160712113781666
aF-0.010537019290418368
aF-0.002294485054096771
aF-0.004792409147393092
aF-0.02104020514470761
aF-0.004078912531551375
aF0.005040073899161115
aF-0.008141084372463496
aF0.0
aF0.004286068419202609
aF0.0
aF-0.004100195361757888
aF-0.004912757013878078
aF-0.015037482850736358
aF-0.004132878973214325
aF0.006188138063252428
aF-0.005185236211522221
aF0.005723684648371824
aF-0.03708427645705452
aF0.006409849644225229
aF-0.07794329050273535
aF-0.07370639666659058
aF-0.027205300708219242
aF-0.03147123811717228
aF0.01047181211438121
aF-0.009798752544988623
aF0.005543278390816124
aF0.0006949599617810092
aF-0.062377997370894084
aF-0.027290592329137556
aF-0.009504254342858233
aF-0.014367055467385998
aF0.0
aF-0.02878772685827101
aF-0.004987580356118285
aF-0.03361816741465602
aF-0.00477445723511069
aF-0.018685866482714975
aF0.0
aF-0.025149942890668412
aF-0.008203495520444424
aF-0.0049731643256009875
aF-0.0049792861587218615
aF0.0
aF-0.0035739528226923674
aF0.0
aF-0.003462850979372682
aF0.00012485877262268744
aF0.0014451114965414171
aF-0.0033333222045057245
aF0.0004180841209363228
aF0.013014371908524168
aF-0.0012192621804739247
aF-0.13644294190607148
aF-0.026545705413884013
aF-0.004832842397038879
aF0.0
aF-0.025917563113529274
aF-0.0003258430726385776
aF-0.012849268023060434
aF-0.028279002506709013
aF-0.014778150397337084
aF-0.0044099457957541555
aF-0.009470697903826406
aF-0.03793173023568512
aF-0.002954396953563708
aF-0.0076942504908101535
aF-0.051763773213401684
aF-0.01625596526883575
aF-0.03446342523965079
aF0.0015657167606551526
aF-0.007814926501673458
aF-0.007720234466940443
aF-0.024808754275288253
aF-0.004884094072522111
aF-0.003086844729705983
aF-0.04370728668595237
aF-0.004712153185611514
aF-0.018560785527466657
aF-0.004717228203616297
aF-0.005057808787816574
aF-0.004122111813300221
aF0.02410099572611364
aF0.005015692618856973
aF-0.07125777900973673
aF-0.003006994837500943
aF-0.001488406863454744
aF-0.0001126116947871205
aF-0.008180840985370808
aF-0.02312975952336738
aF-0.002292294737673977
aF-0.03718069499003975
aF-0.012613901272935329
aF0.005121090169118113
aF-0.02404334098709624
aF0.00516091899116514
aF-0.0423305920657476
aF-0.18446911955735001
aF0.008755775046310173
aF-0.024305963479876826
aF-0.021561629973549042
aF0.0026262492313697933
aF-0.009301871163412108
aF-0.014605317538091234
aF-0.03824472873862821
aF-0.004815120696985678
aF-0.009528882850521624
aF-0.01337073729697548
aF-0.004801743933101543
aF-0.008308042793223846
aF-0.009696616894759463
aF-0.01775089410261247
aF-0.012770019409509689
aF-0.046430411809715605
aF-0.03882567040802705
aF-0.06155155895515774
aF-0.005163341194715148
aF0.0001928607372196755
aF-0.044712225268599914
aF0.002284068493140484
aF0.0
aF-0.004096287370197714
aF-0.015814119402655164
aF-0.016334617780240215
aF-0.006372817109301535
aF0.007591725996431152
aF0.003742115074054292
aF-0.002908463574659017
aF-0.027264892172803402
aF-0.004451931757172159
aF-0.05374184500102881
aF-0.03953093038316576
aF0.0
aF0.0
aF0.0008159372746862851
aF-0.0030409211169543865
aF-0.007682348238971396
aF-0.0465125767135855
aF-0.0053699004639156025
aF-0.004768429876858653
aF-0.004299124529577807
aF-0.004970482787662654
aF-0.0019534355049484805
aF-0.003668922075125783
aF0.0
aF-0.002933717904687927
aF-0.11848730188786781
aF-0.016813630859196724
aF-0.005134628769989611
aF0.004141138098014643
aF-0.14889818849404143
aF-0.023898673806365935
aF-0.03969944942111495
aF-0.20021102597130294
aF-0.22956211297488768
aF-0.009346654468392852
aF-0.01298379403705592
aF-0.07739596792764462
aF-0.011491992455104837
aF-0.004886651023864942
aF-0.004475346429750389
aF0.005231519761498903
aF-0.004762641767912659
aF0.004995445954090187
aF-0.09377319423427062
aF-0.006213548766548084
aF-0.015567040414329922
aF-0.0035681751896958595
aF0.0049536226361926415
aF0.0010135302700614406
aF-0.0046685369048384525
aF0.0
aF-0.01690558026882552
aF-0.008501074052136225
aF-0.006414670541936814
aF-0.1315412099089959
aF-0.004198629678515058
aF0.0
aF0.0
aF-0.05404407449526274
aF-0.009604033697366562
aF-0.04806336199358675
aF-0.004732494292241997
aF-0.2495699869479882
aF0.0
aF-0.0024862066705259376
aF-0.007375352774253054
aF-0.003839887996855902
aF-0.003511958718376264
aF-0.004973506306724023
aF-0.10254499823661711
aF-0.008487040490037453
aF-0.024179894404323464
aF-0.10783445361938418
aF-0.025507120385550742
aF-0.013672398342723385
aF-0.014137934322432589
aF-0.03924137465471482
aF-0.03133491037748162
aF-0.0051114982239185225
aF-0.03207876262728072
aF-0.004445849302739494
aF-0.004812422228743077
aF-0.001190134208437873
aF-0.004255791342315348
aF0.0
aF0.004704740266635123
aF-0.008166972122566273
aF0.011730939627976566
aF-0.013379914741871278
aF-0.013940600960799758
aF0.0048512319363245415
aF0.005205644124208315
aF0.0
aF-0.01785304932516177
aF-0.05383239676518067
aF-0.012854621292519311
aF-0.006232847270514737
aF-0.00036974412661917936
aF-0.004289691143429712
aF-0.007433364485981198
aF-0.0021032716502716845
aF-0.0075028437008264354
aF-0.008836451081731485
aF-0.00457399645676118
aF-0.007264933931537593
aF-2.110080615911537
aF-0.007967410789072168
aF-0.006878283163509348
aF-0.0015770542625892282
aF-0.00532653997205864
aF-0.0013319017865906521
aF-0.006345080107604421
aF-0.01836940841607735
aF-0.004751974033547969
aF-0.00431362887437379
aF-0.023319638654593005
aF-0.0131745817242006
aF0.005474759546084998
aF0.03835000587639333
aF0.03730823369179411
aF0.02083869807603953
aF0.018987505068440595
aF-0.00664282989664405
aF0.016155432694562672
aF0.04097391574940494
aF-0.028002912343766492
aF-0.0017671876374987774
aF0.023016853554314935
aF-0.022148222932433275
aF-0.00583083309148173
aF0.04336564271379395
aF-0.004608672546807077
aF-0.0018710868466732251
aF-0.0015202005171387634
aF-0.009822949997452653
aF-0.10043175647862618
aF-0.01640317008802678
aF-0.015807355402387806
aF0.013997867987463778
aF-0.010435450038246983
aF-0.1413363688572302
aF-0.0239725265478338
aF-0.0008216051038558814
aF0.004950572335455345
aF-0.031191120455088126
aF-0.012468860749037193
aF-0.01764742164062242
aF-0.003570489591581395
aF-0.00259282749939899
aF-0.0010955876442017838
aF-0.0030257164923043573
aF0.0012127590710204741
aF-0.017974776631526856
aF-0.025866574033488195
aF-0.00914853847494677
aF-0.08151360278205105
aF-0.09196774936513492
aF-0.014491707234186121
aF-0.018777036327567807
aF-0.004796422736059423
aF-0.008668366593818356
aF-0.026161365559624904
aF0.0002838244829474765
aF0.0
aF-0.004994949071766205
aF-0.03601370886370354
aF-0.00834476563114848
aF-0.018516865273731958
aF-0.03679365068746555
aF-0.014529042805289792
aF-0.03637182758572232
aF0.0
aF-0.003969608231778609
aF0.0008380155589748648
aF-0.003397306407056489
aF-0.003935769169211021
aF-0.004760108776258487
aF-0.1536683494619386
aF-0.004339378709497165
aF-0.0004321447515689813
aF-0.19046176656213454
aF-0.0692173792284357
aF-0.07117347375061431
aF-0.0691458230925909
aF-0.05601004450217765
aF-0.08798692774437611
aF-0.013480138915190317
aF-0.007153686227240409
aF-0.004614187455595969
aF-0.004323782600045135
aF0.001502548248281014
aF-0.029336924183668997
aF0.004992062724934057
aF-0.0035089531908606537
aF-0.0015174366730063235
aF-0.01602422018661242
aF-0.0187655202745144
aF-0.002341735704973481
aF0.0006287248694799583
aF-0.006243155708763273
aF-0.01153209639671426
aF-0.02292205368205414
aF-0.009003858028403075
aF-0.04211614953648609
aF-0.024513537687299344
aF-0.016556437979304558
aF-0.041439816522999405
aF-0.6731060154398769
aF0.022774066330692073
aF-0.0036828305264189104
aF-0.021981356200560853
aF0.0028348073809813055
aF-0.02936314656538906
aF-0.03640223807970188
aF-0.006253293015164297
aF-0.07136147207367743
aF-0.0024315834238728476
aF-0.002254936926829456
aF-0.0031252505583086766
aF-0.004688708115369155
aF0.00041399778415565896
aF-0.001318413925705635
aF0.0070272710594554404
aF-0.009824246993670837
aF-0.041793624355111296
aF-0.011986390648969752
aF-0.023440696231607175
aF-0.00023414877210480823
aF-0.4813998717647265
aF-0.026821555027862293
aF-0.015943579296532007
aF-0.004426141446969015
aF-0.07855943906583644
aF-0.005916979070751614
aF-0.0028046776880941517
aF0.00984491177552411
aF-0.005057927713579072
aF0.0
aF-0.004936019981884133
aF-0.004463911866781232
aF-0.00267626835665624
aF0.009261230456150136
aF-0.0009445137139938737
aF-0.0043069261401860225
aF-0.006432244737148987
aF-0.023013065990554193
aF-0.013541714377371145
aF-0.008772538600815049
aF-0.004468919431489003
aF0.0
aF-0.03188776701692608
aF0.005731794627065365
aF-0.00752057962128085
aF-0.1784547592191407
aF-0.004645793452971728
aF-0.0451636288377342
aF-0.0049880568252175655
aF-0.00050840490252412
aF-1.9767224655631315
aF-0.007405882574481978
aF-0.0038951472358865315
aF-0.2017403137531111
aF-0.07720840216869272
aF-1.9662202658572576
aF-1.4822802682649814
aF-0.021989478802357378
aF-0.2140580228077549
aF-0.8847410105755685
aF-0.005010283787107099
aF0.006196145591012642
aF-0.015600004831295778
aF-0.0014373180161810386
aF-0.3125849160776706
aF-0.004909147134086497
aF0.0
aF-0.08767193004966244
aF-0.005077480944955597
aF-5.2866572662263684e-05
aF-0.016393399910122855
aF-0.009847377831930888
aF0.012686995490052467
aF0.007134378007367629
aF-0.010291962296883552
aF0.00502281328780064
aF-0.007630879036024404
aF0.0035957739165105593
aF-0.04713673514701249
aF-0.0017290381281617414
aF0.00027388718178064
aF-0.12376030484761252
aF-0.2235496195848355
aF-0.002101354008196646
aF0.07252576970765617
aF0.003691043528620119
aF-0.012418667761585634
aF0.008382669496235973
aF0.02391230764971532
aF0.00010882187451397192
aF0.007125288580681617
aF0.010952108169812107
aF-0.0047748527396642695
aF0.0050891614455744125
aF-0.05860812825979862
aF-0.05967062116202107
aF0.010714206872844773
aF0.014149426512247865
aF-0.023324286438543028
aF-0.08418364514107951
aF-0.05499213572460955
aF-0.018899460650551717
aF-0.025827293597241778
aF0.007894544903241485
aF-0.020184144021573463
aF-0.0034701657434807456
aF0.014389447700114416
aF-0.029405012075278
aF-0.022104807799595387
aF-0.06641841545220928
aF-0.11540907870852658
aF-0.4086082731945784
aF-0.0394558355456157
aF-0.03425032405585557
aF-0.15385968532485916
aF0.004988840882928912
aF0.005332076654681389
aF-0.014945550791397718
aF-0.005214930439899235
aF-0.00475085609710927
aF-0.004106910310819568
aF0.007103172991312367
aF-0.004253378064952978
aF-0.017083114765815643
aF-0.015239504184076625
aF-0.008245790949010666
aF0.007670740197419436
aF0.02396327321235777
aF-0.004986671609742271
aF-0.02347705036297025
aF0.009910677812810843
aF-1.1228262435166525
aF-0.0018194585549582134
aF-0.01301315391512794
aF-0.004981057090528925
aF-0.0004081489590497924
aF-0.008033758445920363
aF0.011853396815049003
aF0.009760172642868372
aF0.0001356005996283804
aF-0.007483964202252903
aF-0.004171632518724987
aF0.006337515818348873
aF0.007167274400236338
aF0.004322556541404695
aF0.005388577903790386
aF0.0052555585363844
aF-0.027833788159403967
aF-0.004793286480021427
aF-0.0047553077839184955
aF-0.00254642107515762
aF-0.012041146841432222
aF0.01418897998335443
aF-0.01929412332572825
aF-0.013653690953217942
aF-0.008388326842184
aF0.021959383964545092
aF-0.006716614699732823
aF0.014612027849583105
aF0.004274889638605949
aF0.0035039980332487635
aF-0.0028219550420991927
aF0.0
aF-7.269491591131629e-05
aF0.003573678914265577
aF-0.011020098359688115
aF-0.003313263177520411
aF-0.014526196528769422
aF0.0
aF0.005007709370048103
aF-2.8106907425113313e-05
aF-0.25868549463128987
aF-0.004479663841654002
aF-0.008549923089381208
aF-0.012647571776952833
aF-0.043767179129944114
aF-0.05528077119646545
aF-0.09931440175331775
aF-0.051932430017003046
aF0.0
aF-0.00559482191339793
aF-0.08626998858947872
aF-0.02476013843901106
aF-0.21485846339831588
aF-0.004121570584031194
aF0.0
aF-0.004923542084061897
aF0.0001959604361127347
aF-0.0024823454244207598
aF-0.004483152090402633
aF-0.0014497665288151394
aF0.0
aF-0.009898078875549176
aF-0.014077911891737566
aF-0.004505633928458631
aF0.005174205118584608
aF-0.00824873351491423
aF-0.0026795955144338526
aF-0.054640218670092285
aF-0.003839887996855902
aF-0.031524502034682114
aF-0.0006410626702048365
aF-0.001096481645876383
aF-0.0031870748136559645
aF-0.10344446273261783
aF-0.017196539061878555
aF0.007790470350064738
aF-0.00869653006358883
aF-0.06072397565323584
aF-0.01875524416427017
aF-0.004829688407953437
aF-0.013276299469641508
aF-0.0010095573004795034
aF-0.0002938552530373584
aF0.7728277707142464
aF0.0
aF-0.004252647453274685
aF0.0
aF-0.0018891490830061312
aF-0.27548330087668405
aF0.0
aF-0.0038391317026898477
aF-0.04340386411187292
aF0.0
aF-0.2893124219906786
aF-0.003959823089520964
aF-0.004554784050971377
aF-0.003837451297655416
aF0.0
aF-0.006174636746102247
aF-0.021310787810232122
aF-0.008504089298381992
aF0.0
aF-0.00331710423380907
aF-0.0027073776261635767
aF-0.0026028184578355067
aF-0.003573800103157238
aF-0.003093186386166752
aF-0.0037469937333872894
aF-0.038591332521016555
aF0.0
aF0.0
aF0.0
aF0.0
aF0.0
aF0.0
aF0.0
aF0.0
aF0.0
aF0.0
aF0.0
aF0.0
aF0.0
aF0.0
aF0.0
aF0.0
aF0.0
aF0.0
aF0.0
aF0.0
aF0.0
aF0.0
aF0.0
aF0.0
aF0.0
aF0.0
aF0.0
aF0.0
aF0.0
aF0.0
aF0.0
aF0.0
aF0.0
aF0.0
aF0.0
aF0.0
aF0.0
aF0.0
aF0.0
aF0.0
aF0.0
aF0.0
aF0.0
aF0.0
aF0.0
aF0.0
aF0.0
aF0.0
aF0.0
aF0.0
aF0.0
aF0.0
aF0.0
aF0.0
aF0.0
aF0.0
aF0.0
aF0.0
aF0.0
aF0.0
aF0.0
aF0.0
aF0.0
aF0.0
aF0.0
aF0.0
aF0.0
aF0.0
aF0.0
aF0.0
aF0.0
aF0.0
aF0.0
aF0.0
aF0.0
aF0.0
aF0.0
aF0.0
aF0.0
aF0.0
aF0.0
aF0.0
aF0.0
aF0.0
aF0.0
aF0.0
aF0.0
aF0.0
aF0.0
aF0.0
aF0.0
aF0.0
aF0.0
aF0.0
aF0.0
aF0.0
aF0.0
aF0.0
aF0.0
aF0.0
aF0.0
aF0.0
aF0.0
aF0.0
aF0.0
aF0.0
aF0.0
aF0.0
aF0.0
aF0.0
aF0.0
aF0.0
aF0.0
aF0.0
aF0.0
aF0.0
aF0.0
aF0.0
aF0.0
aF0.0
aF0.0
aF0.0
aF0.0
aF0.0
aF0.0
aF0.0
aF0.0
aF0.0
aF0.0
aF0.0
aF0.0
aF0.0
aF0.0
aF0.0
aF0.0
aF0.0
aF0.0
aF0.0
aF0.0
aF0.0
aF0.0
aF0.0
aF0.0
aF0.0
aF0.0
aF0.0
aF0.0
aF0.0
aF0.0
aF0.0
aF0.0
aF0.0
aF0.0
aF0.0
aF0.0
aF0.0
aF0.0
aF0.0
aF0.0
aF0.0
aF0.0
aF0.0
aF0.0
aF0.0
aF0.0
aF0.0
aF0.0
aF0.0
aF0.0
aF0.0
aF0.0
aF0.0
aF0.0
aF0.0
aF0.0
aF0.0
aF0.0
aF0.0
aF0.0
aF0.0
aF0.0
aF0.0
aF0.0
aF0.0
aF0.0
aF0.0
aF0.0
aF0.0
aF0.0
aF0.0
aF0.0
aF0.0
aF0.0
aF0.0
aF0.0
aF0.0
aF0.0
aF0.0
aF0.0
aF0.0
aF0.0
aF0.0
aF0.0
aF0.0
aF0.0
aF0.0
aF0.0
aF0.0
aF0.0
aF0.0
aF0.0
aF0.0
aF0.0
aF0.0
aF0.0
aF0.0
aF0.0
aF0.0
aF0.0
aF0.0
aF0.0
aF0.0
aF0.0
aF0.0
aF0.0
aF0.0
aF0.0
aF0.0
aF0.0
aF0.0
aF0.0
aF0.0
aF0.0
aF0.0
aF0.0
aF0.0
aF0.0
aF0.0
aF0.0
aF0.0
aF0.0
aF0.0
aF0.0
aF0.0
aF0.0
aF0.0
aF0.0
aF0.0
aF0.0
aF0.0
aF0.0
aF0.0
aF0.0
aF0.0
aF0.0
aF0.0
aF0.0
aF0.0
aF0.0
aF0.0
aF0.0
aF0.0
aF0.0
aF0.0
aF0.0
aF0.0
aF0.0
aF0.0
aF0.0
aF0.0
aF0.0
aF0.0
aF0.0
aF0.0
aF0.0
aF0.0
aF0.0
aF0.0
aF0.0
aF0.0
aF0.0
aF0.0
aF0.0
aF0.0
aF0.0
aF0.0
aF0.0
aF0.0
aF0.0
aF0.0
aF0.0
aF0.0
aF0.0
aF0.0
aF0.0
aF0.0
aF0.0
aF0.0
aF0.0
aF0.0
aF0.0
aF0.0
aF0.0
aF0.0
aF0.0
aF0.0
aF0.0
aF0.0
aF0.0
aF0.0
aF0.0
aF0.0
aF0.0
aF0.0
aF0.0
aF0.0
aF0.0
aF0.0
aF0.0
aF0.0
aF0.0
aF0.0
aF0.0
aF0.0
aF0.0
aF0.0
aF0.0
aF0.0
aF0.0
aF0.0
aF0.0
aF0.0
aF0.0
aF0.0
aF0.0
aF0.0
aF0.0
aF0.0
aF0.0
aF0.0
aF0.0
aF0.0
aF0.0
aF0.0
aF0.0
aF0.0
aF0.0
aF0.0
aF0.0
aF0.0
aF0.0
aF0.0
aF0.0
aF0.0
aF0.0
aF0.0
aF0.0
aF0.0
aF0.0
aF0.0
aF0.0
aF0.0
aF0.0
aF0.0
aF0.0
aF0.0
aF0.0
aF0.0
aF0.0
aF0.0
aF0.0
aF0.0
aF0.0
aF0.0
aF0.0
aF0.0
aF0.0
aF0.0
aF0.0
aF0.0
aF0.0
aF0.0
aF0.0
aF0.0
aF0.0
aF0.0
aF0.0
aF0.0
aF0.0
aF0.0
aF0.0
aF0.0
aF0.0
aF0.0
aF0.0
aF0.0
aF0.0
aF0.0
aF0.0
aF0.0
aF0.0
aF0.0
aF0.0
aF0.0
aF0.0
aF0.0
aF0.0
aF0.0
aF0.0
aF0.0
aF0.0
aF0.0
aF0.0
aF0.0
aF0.0
aF0.0
aF0.0
aF0.0
aF0.0
aF0.0
aF0.0
aF0.0
aF0.0
aF0.0
aF0.0
aF0.0
aF0.0
aF0.0
aF0.0
aF0.0
aF0.0
aF0.0
aF0.0
aF0.0
aF0.0
aF0.0
aF0.0
aF0.0
aF0.0
aF0.0
aF0.0
aF0.0
aF0.0
aF0.0
aF0.0
aF0.0
aF0.0
aF0.0
aF0.0
aF0.0
aF0.0
aF0.0
aF0.0
aF0.0
aF0.0
aF0.0
aF0.0
aF0.0
aF0.0
aF0.0
aF0.0
aF0.0
aF0.0
aF0.0
aF0.0
aF0.0
aF0.0
aF0.0
aF0.0
aF0.0
aF0.0
aF0.0
aF0.0
aF0.0
aF0.0
aF0.0
aF0.0
aF0.0
aF0.0
aF0.0
aF0.0
aF0.0
aF0.0
aF0.0
aF0.0
aF0.0
aF0.0
aF0.0
aF0.0
aF0.0
aF0.0
aF0.0
aF0.0
aF0.0
aF0.0
aF0.0
aF0.0
aF0.0
aF0.0
aF0.0
aF0.0
aF0.0
aF0.0
aF0.0
aF0.0
aF0.0
aF0.0
aF0.0
aF0.0
aF0.0
aF0.0
aF0.0
aF0.0
aF0.0
aF0.0
aF0.0
aF0.0
aF0.0
aF0.0
aF0.0
aF0.0
aF0.0
aF0.0
aF0.0
aF0.0
aF0.0
aF0.0
aF0.0
aF0.0
aF0.0
aF0.0
aF0.0
aF0.0
aF0.0
aF0.0
aF0.0
aF0.0
aF0.0
aF0.0
aF0.0
aF0.0
aF0.0
aF0.0
aF0.0
aF0.0
aF0.0
aF0.0
aF0.0
aF0.0
aF0.0
aF0.0
aF0.0
aF0.0
aF0.0
aF0.0
aF0.0
aF0.0
aF0.0
aF0.0
aF0.0
aF0.0
aF0.0
aF0.0
aF0.0
aF0.0
aF0.0
aF0.0
aF0.0
aF0.0
aF0.0
aF0.0
aF0.0
aF0.0
aF0.0
aF0.0
aF0.0
aF0.0
aF0.0
aF0.0
aF0.0
aF0.0
aF0.0
aF0.0
aF0.0
aF0.0
aF0.0
aF0.0
aF0.0
aF0.0
aF0.0
aF0.0
aF0.0
aF0.0
aF0.0
aF0.0
aF0.0
aF0.0
aF0.0
aF0.0
aF0.0
aF0.0
aF0.0
aF0.0
aF0.0
aF0.0
aF0.0
aF0.0
aF0.0
aF0.0
aF0.0
aF0.0
aF0.0
aF0.0
aF0.0
aF0.0
aF0.0
aF0.0
aF0.0
aF0.0
aF0.0
aF0.0
aF0.0
aF0.0
aF0.0
aF0.0
aF0.0
aF0.0
aF0.0
aF0.0
aF0.0
aF0.0
aF0.0
aF0.0
aF0.0
aF0.0
aF0.0
aF0.0
aF0.0
aF0.0
aF0.0
aF0.0
aF0.0
aF0.0
aF0.0
aF0.0
aF0.0
aF0.0
aF0.0
aF0.0
aF0.0
aF0.0
aF0.0
aF0.0
aF0.0
aF0.0
aF0.0
aF0.0
aF0.0
aF0.0
aF0.0
aF0.0
aF0.0
aF0.0
aF0.0
aF0.0
aF0.0
aF0.0
aF0.0
aF0.0
aF0.0
aF0.0
aF0.0
aF0.0
aF0.0
aF0.0
aF0.0
aF0.0
aF0.0
aF0.0
aF0.0
aF0.0
aF0.0
aF0.0
aF0.0
aF0.0
aF0.0
aF0.0
aF0.0
aF0.0
aF0.0
aF0.0
aF0.0
aF0.0
aF0.0
aF0.0
aF0.0
aF0.0
aF0.0
aF0.0
aF0.0
aF0.0
aF0.0
aF0.0
aF0.0
aF0.0
aF0.0
aF0.0
aF0.0
aF0.0
aF0.0
aF0.0
aF0.0
aF0.0
aF0.0
aF0.0
aF0.0
aF0.0
aF0.0
aF0.0
aF0.0
aF0.0
aF0.0
aF0.0
aF0.0
aF0.0
aF0.0
aF0.0
aF0.0
aF0.0
aF0.0
aF0.0
aF0.0
aF0.0
aF0.0
aF0.0
aF0.0
aF0.0
aF0.0
aF0.0
aF0.0
aF0.0
aF0.0
aF0.0
aF0.0
aF0.0
aF0.0
aF0.0
aF0.0
aF0.0
aF0.0
aF0.0
aF0.0
aF0.0
aF0.0
aF0.0
aF0.0
aF0.0
aF0.0
aF0.0
aF0.0
aF0.0
aF0.0
aF0.0
aF0.0
aF0.0
aF0.0
aF0.0
aF0.0
aF0.0
aF0.0
aF0.0
aF0.0
aF0.0
aF0.0
aF0.0
aF0.0
aF0.0
aF0.0
aF0.0
aF0.0
aF0.0
aF0.0
aF0.0
aF0.0
aF0.0
aF0.0
aF0.0
aF0.0
aF0.0
aF0.0
aF0.0
aF0.0
aF0.0
aF0.0
aF0.0
aF0.0
aF0.0
aF0.0
aF0.0
aF0.0
aF0.0
aF0.0
aF0.0
aF0.0
aF0.0
aF0.0
aF0.0
aF0.0
aF0.0
aF0.0
aF0.0
aF0.0
aF0.0
aF0.0
aF0.0
aF0.0
aF0.0
aF0.0
aF0.0
aF0.0
aF0.0
aF0.0
aF0.0
aF0.0
aF0.0
aF0.0
aF0.0
aF0.0
aF0.0
aF0.0
aF0.0
aF0.0
aF0.0
aF0.0
aF0.0
aF0.0
aF0.0
aF0.0
aF0.0
aF0.0
aF0.0
aF0.0
aF0.0
aF0.0
aF0.0
aF0.0
aF0.0
aF0.0
aF0.0
aF0.0
aF0.0
aF0.0
aF0.0
aF0.0
aF0.0
aF0.0
aF0.0
aF0.0
aF0.0
aF0.0
aF0.0
aF0.0
aF0.0
aF0.0
aF0.0
aF0.0
aF0.0
aF0.0
aF0.0
aF0.0
aF0.0
aF0.0
aF0.0
aF0.0
aF0.0
aF0.0
aF0.0
aF0.0
aF0.0
aF0.0
aF0.0
aF0.0
aF0.0
aF0.0
aF0.0
aF0.0
aF0.0
aF0.0
aF0.0
aF0.0
aF0.0
aF0.0
aF0.0
aF0.0
aF0.0
aF0.0
aF0.0
aF0.0
aF0.0
aF0.0
aF0.0
aF0.0
aF0.0
aF0.0
aF0.0
aF0.0
aF0.0
aF0.0
aF0.0
aF0.0
aF0.0
aF0.0
aF0.0
aF0.0
aF0.0
aF0.0
aF0.0
aF0.0
aF0.0
aF0.0
aF0.0
aF0.0
aF0.0
aF0.0
aF0.0
aF0.0
aF0.0
aF0.0
aF0.0
aF0.0
aF0.0
aF0.0
aF0.0
aF0.0
aF0.0
aF0.0
aF0.0
aF0.0
aF0.0
aF0.0
aF0.0
aF0.0
aF0.0
aF0.0
aF0.0
aF0.0
aF0.0
aF0.0
aF0.0
aF0.0
aF0.0
aF0.0
aF0.0
aF0.0
aF0.0
aF0.0
aF0.0
aF0.0
aF0.0
aF0.0
aF0.0
aF0.0
aF0.0
aF0.0
aF0.0
aF0.0
aF0.0
aF0.0
aF0.0
aF0.0
aF0.0
aF0.0
aF0.0
aF0.0
aF0.0
aF0.0
aF0.0
aF0.0
aF0.0
aF0.0
aF0.0
aF0.0
aF0.0
aF0.0
aF0.0
aF0.0
aF0.0
aF0.0
aF0.0
aF0.0
aF0.0
aF0.0
aF0.0
aF0.0
aF0.0
aF0.0
aF0.0
aF0.0
aF0.0
aF0.0
aF0.0
aF0.0
aF0.0
aF0.0
aF0.0
aF0.0
aF0.0
aF0.0
aF0.0
aF0.0
aF0.0
aF0.0
aF0.0
aF0.0
aF0.0
aF0.0
aF0.0
aF0.0
aF0.0
aF0.0
aF0.0
aF0.0
aF0.0
aF0.0
aF0.0
aF0.0
aF0.0
aF0.0
aF0.0
aF0.0
aF0.0
aF0.0
aF0.0
aF0.0
aF0.0
aF0.0
aF0.0
aF0.0
aF0.0
aF0.0
aF0.0
aF0.0
aF0.0
aF0.0
aF0.0
aF0.0
aF0.0
aF0.0
aF0.0
aF0.0
aF0.0
aF0.0
aF0.0
aF0.0
aF0.0
aF0.0
aF0.0
aF0.0
aF0.0
aF0.0
aF0.0
aF0.0
aF0.0
aF0.0
aF0.0
aF0.0
aF0.0
aF0.0
aF0.0
aF0.0
aF0.0
aF0.0
aF0.0
aF0.0
aF0.0
aF0.0
aF0.0
aF0.0
aF0.0
aF0.0
aF0.0
aF0.0
aF0.0
aF0.0
aF0.0
aF0.0
aF0.0
aF0.0
aF0.0
aF0.0
aF0.0
aF0.0
aF0.0
aF0.0
aF0.0
aF0.0
aF0.0
aF0.0
aF0.0
aF0.0
aF0.0
aF0.0
aF0.0
aF0.0
aF0.0
aF0.0
aF0.0
aF0.0
aF0.0
aF0.0
aF0.0
aF0.0
aF0.0
aF0.0
aF0.0
aF0.0
aF0.0
aF0.0
aF0.0
aF0.0
aF0.0
aF0.0
aF0.0
aF0.0
aF0.0
aF0.0
aF0.0
aF0.0
aF0.0
aF0.0
aF0.0
aF0.0
aF0.0
aF0.0
aF0.0
aF0.0
aF0.0
aF0.0
aF0.0
aF0.0
aF0.0
aF0.0
aF0.0
aF0.0
aF0.0
aF0.0
aF0.0
aF0.0
aF0.0
aF0.0
aF0.0
aF0.0
aF0.0
aF0.0
aF0.0
aF0.0
aF0.0
aF0.0
aF0.0
aF0.0
aF0.0
aF0.0
aF0.0
aF0.0
aF0.0
aF0.0
aF0.0
aF0.0
aF0.0
aF0.0
aF0.0
aF0.0
aF0.0
aF0.0
aF0.0
aF0.0
aF0.0
aF0.0
aF0.0
aF0.0
aF0.0
aF0.0
aF0.0
aF0.0
aF0.0
aF0.0
aF0.0
aF0.0
aF0.0
aF0.0
aF0.0
aF0.0
aF0.0
aF0.0
aF0.0
aF0.0
aF0.0
aF0.0
aF0.0
aF0.0
aF0.0
aF0.0
aF0.0
aF0.0
aF0.0
aF0.0
aF0.0
aF0.0
aF0.0
aF0.0
aF0.0
aF0.0
aF0.0
aF0.0
aF0.0
aF0.0
aF0.0
aF0.0
aF0.0
aF0.0
aF0.0
aF0.0
aF0.0
aF0.0
aF0.0
aF0.0
aF0.0
aF0.0
aF0.0
aF0.0
aF0.0
aF0.0
aF0.0
aF0.0
aF0.0
aF0.0
aF0.0
aF0.0
aF0.0
aF0.0
aF0.0
aF0.0
aF0.0
aF0.0
aF0.0
aF0.0
aF0.0
aF0.0
aF0.0
aF0.0
aF0.0
aF0.0
aF0.0
aF0.0
aF0.0
aF0.0
aF0.0
aF0.0
aF0.0
aF0.0
aF0.0
aF0.0
aF0.0
aF0.0
aF0.0
aF0.0
aF0.0
aF0.0
aF0.0
aF0.0
aF0.0
aF0.0
aF0.0
aF0.0
aF0.0
aF0.0
aF0.0
aF0.0
aF0.0
aF0.0
aF0.0
aF0.0
aF0.0
aF0.0
aF0.0
aF0.0
aF0.0
aF0.0
aF0.0
aF0.0
aF0.0
aF0.0
aF0.0
aF0.0
aF0.0
aF0.0
aF0.0
aF0.0
aF0.0
aF0.0
aF0.0
aF0.0
aF0.0
aF0.0
aF0.0
aF0.0
aF0.0
aF0.0
aF0.0
aF0.0
aF0.0
aF0.0
aF0.0
aF0.0
aF0.0
aF0.0
aF0.0
aF0.0
aF0.0
aF0.0
aF0.0
aF0.0
aF0.0
aF0.0
aF0.0
aF0.0
aF0.0
aF0.0
aF0.0
aF0.0
aF0.0
aF0.0
aF0.0
aF0.0
aF0.0
aF0.0
aF0.0
aF0.0
aF0.0
aF0.0
aF0.0
aF0.0
aF0.0
aF0.0
aF0.0
aF0.0
aF0.0
aF0.0
aF0.0
aF0.0
aF0.0
aF0.0
aF0.0
aF0.0
aF0.0
aF0.0
aF0.0
aF0.0
aF0.0
aF0.0
aF0.0
aF0.0
aF0.0
aF0.0
aF0.0
aF0.0
aF0.0
aF0.0
aF0.0
aF0.0
aF0.0
aF0.0
aF0.0
aF0.0
aF0.0
aF0.0
aF0.0
aF0.0
aF0.0
aF0.0
aF0.0
aF0.0
aF0.0
aF0.0
aF0.0
aF0.0
aF0.0
aF0.0
aF0.0
aF0.0
aF0.0
aF0.0
aF0.0
aF0.0
aF0.0
aF0.0
aF0.0
aF0.0
aF0.0
aF0.0
aF0.0
aF0.0
aF0.0
aF0.0
aF0.0
aF0.0
aF0.0
aF0.0
aF0.0
aF0.0
aF0.0
aF0.0
aF0.0
aF0.0
aF0.0
aF0.0
aF0.0
aF0.0
aF0.0
aF0.0
aF0.0
aF0.0
aF0.0
aF0.0
aF0.0
aF0.0
aF0.0
aF0.0
aF0.0
aF0.0
aF0.0
aF0.0
aF0.0
aF0.0
aF0.0
aF0.0
aF0.0
aF0.0
aF0.0
aF0.0
aF0.0
aF0.0
aF0.0
aF0.0
aF0.0
aF0.0
aF0.0
aF0.0
aF0.0
aF0.0
aF0.0
aF0.0
aF0.0
aF0.0
aF0.0
aF0.0
aF0.0
aF0.0
aF0.0
aF0.0
aF0.0
aF0.0
aF0.0
aF0.0
aF0.0
aF0.0
aF0.0
aF0.0
aF0.0
aF0.0
aF0.0
aF0.0
aF0.0
aF0.0
aF0.0
aF0.0
aF0.0
aF0.0
aF0.0
aF0.0
aF0.0
aF0.0
aF0.0
aF0.0
aF0.0
aF0.0
aF0.0
aF0.0
aF0.0
aF0.0
aF0.0
aF0.0
aF0.0
aF0.0
aF0.0
aF0.0
aF0.0
aF0.0
aF0.0
aF0.0
aF0.0
aF0.0
aF0.0
aF0.0
aF0.0
aF0.0
aF0.0
aF0.0
aF0.0
aF0.0
aF0.0
aF0.0
aF0.0
aF0.0
aF0.0
aF0.0
aF0.0
aF0.0
aF0.0
aF0.0
aF0.0
aF0.0
aF0.0
aF0.0
aF0.0
aF0.0
aF0.0
aF0.0
aF0.0
aF0.0
aF0.0
aF0.0
aF0.0
aF0.0
aF0.0
aF0.0
aF0.0
aF0.0
aF0.0
aF0.0
aF0.0
aF0.0
aF0.0
aF0.0
aF0.0
aF0.0
aF0.0
aF0.0
aF0.0
aF0.0
aF0.0
aF0.0
aF0.0
aF0.0
aF0.0
aF0.0
aF0.0
aF0.0
aF0.0
aF0.0
aF0.0
aF0.0
aF0.0
aF0.0
aF0.0
aF0.0
aF0.0
aF0.0
aF0.0
aF0.0
aF0.0
aF0.0
aF0.0
aF0.0
aF0.0
aF0.0
aF0.0
aF0.0
aF0.0
aF0.0
aF0.0
aF0.0
aF0.0
aF0.0
aF0.0
aF0.0
aF0.0
aF0.0
aF0.0
aF0.0
aF0.0
aF0.0
aF0.0
aF0.0
aF0.0
aF0.0
aF0.0
aF0.0
aF0.0
aF0.0
aF0.0
aF0.0
aF0.0
aF0.0
aF0.0
aF0.0
aF0.0
aF0.0
aF0.0
aF0.0
aF0.0
aF0.0
aF0.0
aF0.0
aF0.0
aF0.0
aF0.0
aF0.0
aF0.0
aF0.0
aF0.0
aF0.0
aF0.0
aF0.0
aF0.0
aF0.0
aF0.0
aF0.0
aF0.0
aF0.0
aF0.0
aF0.0
aF0.0
aF0.0
aF0.0
aF0.0
aF0.0
aF0.0
aF0.0
aF0.0
aF0.0
aF0.0
aF0.0
aF0.0
aF0.0
aF0.0
aF0.0
aF0.0
aF0.0
aF0.0
aF0.0
aF0.0
aF0.0
aF0.0
aF0.0
aF0.0
aF0.0
aF0.0
aF0.0
aF0.0
aF0.0
aF0.0
aF0.0
aF0.0
aF0.0
aF0.0
aF0.0
aF0.0
aF0.0
aF0.0
aF0.0
aF0.0
aF0.0
aF0.0
aF0.0
aF0.0
aF0.0
aF0.0
aF0.0
aF0.0
aF0.0
aF0.0
aF0.0
aF0.0
aF0.0
aF0.0
aF0.0
aF0.0
aF0.0
aF0.0
aF0.0
aF0.0
aF0.0
aF0.0
aF0.0
aF0.0
aF0.0
aF0.0
aF0.0
aF0.0
aF0.0
aF0.0
aF0.0
aF0.0
aF0.0
aF0.0
aF0.0
aF0.0
aF0.0
aF0.0
aF0.0
aF0.0
aF0.0
aF0.0
aF0.0
aF0.0
aF0.0
aF0.0
aF0.0
aF0.0
aF0.0
aF0.0
aF0.0
aF0.0
aF0.0
aF0.0
aF0.0
aF0.0
aF0.0
aF0.0
aF0.0
aF0.0
aF0.0
aF0.0
aF0.0
aF0.0
aF0.0
aF0.0
aF0.0
aF0.0
aF0.0
aF0.0
aF0.0
aF0.0
aF0.0
aF0.0
aF0.0
aF0.0
aF0.0
aF0.0
aF0.0
aF0.0
aF0.0
aF0.0
aF0.0
aF0.0
aF0.0
aF0.0
aF0.0
aF0.0
aF0.0
aF0.0
aF0.0
aF0.0
aF0.0
aF0.0
aF0.0
aF0.0
aF0.0
aF0.0
aF0.0
aF0.0
aF0.0
aF0.0
aF0.0
aF0.0
aF0.0
aF0.0
aF0.0
aF0.0
aF0.0
aF0.0
aF0.0
aF0.0
aF0.0
aF0.0
aF0.0
aF0.0
aF0.0
aF0.0
aF0.0
aF0.0
aF0.0
aF0.0
aF0.0
aF0.0
aF0.0
aF0.0
aF0.0
aF0.0
aF0.0
aF0.0
aF0.0
aF0.0
aF0.0
aF0.0
aF0.0
aF0.0
aF0.0
aF0.0
aF0.0
aF0.0
aF0.0
aF0.0
aF0.0
aF0.0
aF0.0
aF0.0
aF0.0
aF0.0
aF0.0
aF0.0
aF0.0
aF0.0
aF0.0
aF0.0
aF0.0
aF0.0
aF0.0
aF0.0
aF0.0
aF0.0
aF0.0
aF0.0
aF0.0
aF0.0
aF0.0
aF0.0
aF0.0
aF0.0
aF0.0
aF0.0
aF0.0
aF0.0
aF0.0
aF0.0
aF0.0
aF0.0
aF0.0
aF0.0
aF0.0
aF0.0
aF0.0
aF0.0
aF0.0
aF0.0
aF0.0
aF0.0
aF0.0
aF0.0
aF0.0
aF0.0
aF0.0
aF0.0
aF0.0
aF0.0
aF0.0
aF0.0
aF0.0
aF0.0
aF0.0
aF0.0
aF0.0
aF0.0
aF0.0
aF0.0
aF0.0
aF0.0
aF0.0
aF0.0
aF0.0
aF0.0
aF0.0
aF0.0
aF0.0
aF0.0
aF0.0
aF0.0
aF0.0
aF0.0
aF0.0
aF0.0
aF0.0
aF0.0
aF0.0
aF0.0
aF0.0
aF0.0
aF0.0
aF0.0
aF0.0
aF0.0
aF0.0
aF0.0
aF0.0
aF0.0
aF0.0
aF0.0
aF0.0
aF0.0
aF0.0
aF0.0
aF0.0
aF0.0
aF0.0
aF0.0
aF0.0
aF0.0
aF0.0
aF0.0
aF0.0
aF0.0
aF0.0
aF0.0
aF0.0
aF0.0
aF0.0
aF0.0
aF0.0
aF0.0
aF0.0
aF0.0
aF0.0
aF0.0
aF0.0
aF0.0
aF0.0
aF0.0
aF0.0
aF0.0
aF0.0
aF0.0
aF0.0
aF0.0
aF0.0
aF0.0
aF0.0
aF0.0
aF0.0
aF0.0
aF0.0
aF0.0
aF0.0
aF0.0
aF0.0
aF0.0
aF0.0
aF0.0
aF0.0
aF0.0
aF0.0
aF0.0
aF0.0
aF0.0
aF0.0
aF0.0
aF0.0
aF0.0
aF0.0
aF0.0
aF0.0
aF0.0
aF0.0
aF0.0
aF0.0
aF0.0
aF0.0
aF0.0
aF0.0
aF0.0
aF0.0
aF0.0
aF0.0
aF0.0
aF0.0
aF0.0
aF0.0
aF0.0
aF0.0
aF0.0
aF0.0
aF0.0
aF0.0
aF0.0
aF0.0
aF0.0
aF0.0
aF0.0
aF0.0
aF0.0
aF0.0
aF0.0
aF0.0
aF0.0
aF0.0
aF0.0
aF0.0
aF0.0
aF0.0
aF0.0
aF0.0
aF0.0
aF0.0
aF0.0
aF0.0
aF0.0
aF0.0
aF0.0
aF0.0
aF0.0
aF0.0
aF0.0
aF0.0
aF0.0
aF0.0
aF0.0
aF0.0
aF0.0
aF0.0
aF0.0
aF0.0
aF0.0
aF0.0
aF0.0
aF0.0
aF0.0
aF0.0
aF0.0
aF0.0
aF0.0
aF0.0
aF0.0
aF0.0
aF0.0
aF0.0
aF0.0
aF0.0
aF0.0
aF0.0
aF0.0
aF0.0
aF0.0
aF0.0
aF0.0
aF0.0
aF0.0
aF0.0
aF0.0
aF0.0
aF0.0
aF0.0
aF0.0
aF0.0
aF0.0
aF0.0
aF0.0
aF0.0
aF0.0
aF0.0
aF0.0
aF0.0
aF0.0
aF0.0
aF0.0
aF0.0
aF0.0
aF0.0
aF0.0
aF0.0
aF0.0
aF0.0
aF0.0
aF0.0
aF0.0
aF0.0
aF0.0
aF0.0
aF0.0
aF0.0
aF0.0
aF0.0
aF0.0
aF0.0
aF0.0
aF0.0
aF0.0
aF0.0
aF0.0
aF0.0
aF0.0
aF0.0
aF0.0
aF0.0
aF0.0
aF0.0
aF0.0
aF0.0
aF0.0
aF0.0
aF0.0
aF0.0
aF0.0
aF0.0
aF0.0
aF0.0
aF0.0
aF0.0
aF0.0
aF0.0
aF0.0
aF0.0
aF0.0
aF0.0
aF0.0
aF0.0
aF0.0
aF0.0
aF0.0
aF0.0
aF0.0
aF0.0
aF0.0
aF0.0
aF0.0
aF0.0
aF0.0
aF0.0
aF0.0
aF0.0
aF0.0
aF0.0
aF0.0
aF0.0
aF0.0
aF0.0
aF0.0
aF0.0
aF0.0
aF0.0
aF0.0
aF0.0
aF0.0
aF0.0
aF0.0
aF0.0
aF0.0
aF0.0
aF0.0
aF0.0
aF0.0
aF0.0
aF0.0
aF0.0
aF0.0
aF0.0
aF0.0
aF0.0
aF0.0
aF0.0
aF0.0
aF0.0
aF0.0
aF0.0
aF0.0
aF0.0
aF0.0
aF0.0
aF0.0
aF0.0
aF0.0
aF0.0
aF0.0
aF0.0
aF0.0
aF0.0
aF0.0
aF0.0
aF0.0
aF0.0
aF0.0
aF0.0
aF0.0
aF0.0
aF0.0
aF0.0
aF0.0
aF0.0
aF0.0
aF0.0
aF0.0
aF0.0
aF0.0
aF0.0
aF0.0
aF0.0
aF0.0
aF0.0
aF0.0
aF0.0
aF0.0
aF0.0
aF0.0
aF0.0
aF0.0
aF0.0
aF0.0
aF0.0
aF0.0
aF0.0
aF0.0
aF0.0
aF0.0
aF0.0
aF0.0
aF0.0
aF0.0
aF0.0
aF0.0
aF0.0
aF0.0
aF0.0
aF0.0
aF0.0
aF0.0
aF0.0
aF0.0
aF0.0
aF0.0
aF0.0
aF0.0
aF0.0
aF0.0
aF0.0
aF0.0
aF0.0
aF0.0
aF0.0
aF0.0
aF0.0
aF0.0
aF0.0
aF0.0
aF0.0
aF0.0
aF0.0
aF0.0
aF0.0
aF0.0
aF0.0
aF0.0
aF0.0
aF0.0
aF0.0
aF0.0
aF0.0
aF0.0
aF0.0
aF0.0
aF0.0
aF0.0
aF0.0
aF0.0
aF0.0
aF0.0
aF0.0
aF0.0
aF0.0
aF0.0
aF0.0
aF0.0
aF0.0
aF0.0
aF0.0
aF0.0
aF0.0
aF0.0
aF0.0
aF0.0
aF0.0
aF0.0
aF0.0
aF0.0
aF0.0
aF0.0
aF0.0
aF0.0
aF0.0
aF0.0
aF0.0
aF0.0
aF0.0
aF0.0
aF0.0
aF0.0
aF0.0
aF0.0
aF0.0
aF0.0
aF0.0
aF0.0
aF0.0
aF0.0
aF0.0
aF0.0
aF0.0
aF0.0
aF0.0
aF0.0
aF0.0
aF0.0
aF0.0
aF0.0
aF0.0
aF0.0
asb.